; Listing generated by Microsoft (R) Optimizing Compiler Version 18.00.30501.0 

include listing.inc

INCLUDELIB MSVCRTD
INCLUDELIB OLDNAMES

PUBLIC	?value@?$integral_constant@_N$0A@@std@@2_NB	; std::integral_constant<bool,0>::value
PUBLIC	?value@?$integral_constant@_N$00@std@@2_NB	; std::integral_constant<bool,1>::value
;	COMDAT ?value@?$integral_constant@_N$00@std@@2_NB
CONST	SEGMENT
?value@?$integral_constant@_N$00@std@@2_NB DB 01H	; std::integral_constant<bool,1>::value
CONST	ENDS
;	COMDAT ?value@?$integral_constant@_N$0A@@std@@2_NB
CONST	SEGMENT
?value@?$integral_constant@_N$0A@@std@@2_NB DB 00H	; std::integral_constant<bool,0>::value
CONST	ENDS
PUBLIC	?ReleaseSuite@AEGP_SuiteHandler@@AEAAXPEADJ@Z	; AEGP_SuiteHandler::ReleaseSuite
PUBLIC	?ReleaseAllSuites@AEGP_SuiteHandler@@AEAAXXZ	; AEGP_SuiteHandler::ReleaseAllSuites
PUBLIC	??0AEGP_SuiteHandler@@QEAA@PEBUSPBasicSuite@@@Z	; AEGP_SuiteHandler::AEGP_SuiteHandler
PUBLIC	??1AEGP_SuiteHandler@@QEAA@XZ			; AEGP_SuiteHandler::~AEGP_SuiteHandler
PUBLIC	??_C@_0BC@LDPOLBLC@AEGP?5Marker?5Suite?$AA@	; `string'
PUBLIC	??_C@_0BB@FCHPPLFG@AEGP?5Layer?5Suite?$AA@	; `string'
PUBLIC	??_C@_0BC@IPBKMDAM@AEGP?5Stream?5Suite?$AA@	; `string'
PUBLIC	??_C@_0BK@ELNHACLA@AEGP?5Dynamic?5Stream?5Suite?$AA@ ; `string'
PUBLIC	??_C@_0BE@OHEGGHMO@AEGP?5Keyframe?5Suite?$AA@	; `string'
PUBLIC	??_C@_0BA@EIBCLLGC@AEGP?5Comp?5Suite?$AA@	; `string'
PUBLIC	??_C@_0BC@KOOCLAME@AEGP?5Canvas?5Suite?$AA@	; `string'
PUBLIC	??_C@_0BC@FAEKKEMM@AEGP?5Camera?5Suite?$AA@	; `string'
PUBLIC	??_C@_0BE@CEIMNFLD@AEGP?5Register?5Suite?$AA@	; `string'
PUBLIC	??_C@_0BA@CJJFBPBL@AEGP?5Item?5Suite?$AA@	; `string'
PUBLIC	??_C@_0BI@NNBKMHEK@AEGP?5PF?5Interface?5Suite?$AA@ ; `string'
PUBLIC	??_C@_0BE@POIEDIGD@PF?5Path?5Query?5Suite?$AA@	; `string'
PUBLIC	??_C@_0BC@BBNGCJFE@AEGP?5Memory?5Suite?$AA@	; `string'
PUBLIC	??_C@_0BD@PNACFLBF@PF?5Path?5Data?5Suite?$AA@	; `string'
PUBLIC	??_C@_0BA@OEHNFJMG@PF?5AE?5App?5Suite?$AA@	; `string'
PUBLIC	??_C@_0BE@KFNBHDEF@PF?5AE?5Adv?5App?5Suite?$AA@	; `string'
PUBLIC	??_C@_0BB@OGPLEFJI@AEGP?5Light?5Suite?$AA@	; `string'
PUBLIC	??_C@_0BC@CIPGHMKH@AEGP?5Effect?5Suite?$AA@	; `string'
PUBLIC	??_C@_0BG@NPODDGJO@AEGP?5Layer?5Mask?5Suite?$AA@ ; `string'
PUBLIC	??_C@_0BI@FEGCMHHE@AEGP?5Mask?5Outline?5Suite?$AA@ ; `string'
PUBLIC	??_C@_0BD@GCCIJPBO@AEGP?5Command?5Suite?$AA@	; `string'
PUBLIC	??_C@_0BD@KAJJLJOD@AEGP?5Utility?5Suite?$AA@	; `string'
PUBLIC	??_C@_0BC@HGGIPEKD@AEGP?5Render?5Suite?$AA@	; `string'
PUBLIC	??_C@_0O@JPGHEGPP@PF?5ANSI?5Suite?$AA@		; `string'
PUBLIC	??_C@_0BA@CLDKMHPO@PF?5Handle?5Suite?$AA@	; `string'
PUBLIC	??_C@_0BE@CIOKPFIG@PF?5Fill?5Matte?5Suite?$AA@	; `string'
PUBLIC	??_C@_0BJ@HEIFEBFB@PF?5World?5Transform?5Suite?$AA@ ; `string'
PUBLIC	??_C@_0BG@EFBNLDKC@AEGP?5QueryXform?5Suite?$AA@	; `string'
PUBLIC	??_C@_0BF@LKKDKFNJ@AEGP?5Composite?5Suite?$AA@	; `string'
PUBLIC	??_C@_0P@ECPMHMCM@PF?5World?5Suite?$AA@		; `string'
PUBLIC	??_C@_0BB@BEOGNAMG@AEGP?5IO?5In?5Suite?$AA@	; `string'
PUBLIC	??_C@_0BC@IOIMFPHL@AEGP?5IO?5Out?5Suite?$AA@	; `string'
PUBLIC	??_C@_0BI@BEGHPPBM@AEGP?5Render?5Queue?5Suite?$AA@ ; `string'
PUBLIC	??_C@_0BN@JODPPADI@AEGP?5Render?5Queue?5Item?5Suite?$AA@ ; `string'
PUBLIC	??_C@_0BJ@HNIFACM@AEGP?5Output?5Module?5Suite?$AA@ ; `string'
PUBLIC	??_C@_0BP@EILMHMHP@AEGP?5File?5Import?5Manager?5Suite?$AA@ ; `string'
PUBLIC	??_C@_0BD@KEGEKMAJ@PF?5Sampling8?5Suite?$AA@	; `string'
PUBLIC	??_C@_0BE@GBHHNNAG@PF?5Sampling16?5Suite?$AA@	; `string'
PUBLIC	??_C@_0BC@CCINLIIF@PF?5Iterate8?5Suite?$AA@	; `string'
PUBLIC	??_C@_0BD@JCMAIAGE@PF?5iterate16?5Suite?$AA@	; `string'
PUBLIC	??_C@_0BG@CAKABFOI@PF?5iterateFloat?5Suite?$AA@	; `string'
PUBLIC	??_C@_0BG@CMDNGCIK@AEGP?5Collection?5Suite?$AA@	; `string'
PUBLIC	??_C@_0BJ@KNOGBGJM@AEGP?5Text?5Document?5Suite?$AA@ ; `string'
PUBLIC	??_C@_0BG@LOHBMOBH@AEGP?5Sound?5Data?5Suite?$AA@ ; `string'
PUBLIC	??_C@_0BG@PIIKMEEM@AEGP?5Text?5Layer?5Suite?$AA@ ; `string'
PUBLIC	??_C@_0BI@NIENNNHL@AEGP?5Artisan?5Util?5Suite?$AA@ ; `string'
PUBLIC	??_C@_0BB@JDBEOMKC@AEGP?5World?5Suite?$AA@	; `string'
PUBLIC	??_C@_0BK@FIOOIKGA@AEGP?5Render?5Options?5Suite?$AA@ ; `string'
PUBLIC	??_C@_0BD@OKKDJPCJ@AEGP?5Tracker?5Suite?$AA@	; `string'
PUBLIC	??_C@_0BL@EOJBEHFK@AEGP?5Tracker?5Utility?5Suite?$AA@ ; `string'
PUBLIC	??_C@_0BI@FFBECFBP@AE?5Plugin?5Helper?5Suite2?$AA@ ; `string'
PUBLIC	??_C@_0BF@OPIMHKKI@PF?5AE?5Adv?5Item?5Suite?$AA@ ; `string'
PUBLIC	??_C@_0BA@GONLBGJF@AEGP?5Proj?5Suite?$AA@	; `string'
PUBLIC	??_C@_0BD@LPACCDGH@AEGP?5Footage?5Suite?$AA@	; `string'
PUBLIC	??_C@_0BL@LKLAICCP@AEGP?5Persistent?5Data?5Suite?$AA@ ; `string'
PUBLIC	??_C@_0BI@MJAMCLDB@PF?5Color?5Settings?5Suite?$AA@ ; `string'
PUBLIC	??_C@_0BD@GPKPPDOH@PF?5ColorParamSuite?$AA@	; `string'
PUBLIC	??_C@_0BH@DBODAPGD@PF?5SamplingFloat?5Suite?$AA@ ; `string'
PUBLIC	??_C@_0BK@CMHGHGNL@PF?5Effect?5Custom?5UI?5Suite?$AA@ ; `string'
PUBLIC	??_C@_0CI@OCHIBGAE@PF?5Effect?5Custom?5UI?5Overlay?5Them@ ; `string'
PUBLIC	??_C@_0BD@FLBGPIMI@DRAWBOT?5Draw?5Suite?$AA@	; `string'
PUBLIC	??_C@_0BH@FIONCCPG@DRAWBOT?5Supplier?5Suite?$AA@ ; `string'
PUBLIC	??_C@_0BG@FIILEFJC@DRAWBOT?5Surface?5Suite?$AA@	; `string'
PUBLIC	??_C@_0BD@MKGMFBND@DRAWBOT?5Path?5Suite?$AA@	; `string'
EXTRN	?MissingSuiteError@AEGP_SuiteHandler@@AEBAXXZ:PROC ; AEGP_SuiteHandler::MissingSuiteError
pdata	SEGMENT
$pdata$?ReleaseSuite@AEGP_SuiteHandler@@AEAAXPEADJ@Z DD imagerel $LN3
	DD	imagerel $LN3+44
	DD	imagerel $unwind$?ReleaseSuite@AEGP_SuiteHandler@@AEAAXPEADJ@Z
pdata	ENDS
;	COMDAT pdata
pdata	SEGMENT
$pdata$?ReleaseAllSuites@AEGP_SuiteHandler@@AEAAXXZ DD imagerel $LN104
	DD	imagerel $LN104+3810
	DD	imagerel $unwind$?ReleaseAllSuites@AEGP_SuiteHandler@@AEAAXXZ
pdata	ENDS
pdata	SEGMENT
$pdata$??0AEGP_SuiteHandler@@QEAA@PEBUSPBasicSuite@@@Z DD imagerel $LN9
	DD	imagerel $LN9+134
	DD	imagerel $unwind$??0AEGP_SuiteHandler@@QEAA@PEBUSPBasicSuite@@@Z
$pdata$??1AEGP_SuiteHandler@@QEAA@XZ DD imagerel $LN3
	DD	imagerel $LN3+24
	DD	imagerel $unwind$??1AEGP_SuiteHandler@@QEAA@XZ
pdata	ENDS
;	COMDAT ??_C@_0BD@MKGMFBND@DRAWBOT?5Path?5Suite?$AA@
CONST	SEGMENT
??_C@_0BD@MKGMFBND@DRAWBOT?5Path?5Suite?$AA@ DB 'DRAWBOT Path Suite', 00H ; `string'
CONST	ENDS
;	COMDAT ??_C@_0BG@FIILEFJC@DRAWBOT?5Surface?5Suite?$AA@
CONST	SEGMENT
??_C@_0BG@FIILEFJC@DRAWBOT?5Surface?5Suite?$AA@ DB 'DRAWBOT Surface Suite'
	DB	00H						; `string'
CONST	ENDS
;	COMDAT ??_C@_0BH@FIONCCPG@DRAWBOT?5Supplier?5Suite?$AA@
CONST	SEGMENT
??_C@_0BH@FIONCCPG@DRAWBOT?5Supplier?5Suite?$AA@ DB 'DRAWBOT Supplier Sui'
	DB	'te', 00H					; `string'
CONST	ENDS
;	COMDAT ??_C@_0BD@FLBGPIMI@DRAWBOT?5Draw?5Suite?$AA@
CONST	SEGMENT
??_C@_0BD@FLBGPIMI@DRAWBOT?5Draw?5Suite?$AA@ DB 'DRAWBOT Draw Suite', 00H ; `string'
CONST	ENDS
;	COMDAT ??_C@_0CI@OCHIBGAE@PF?5Effect?5Custom?5UI?5Overlay?5Them@
CONST	SEGMENT
??_C@_0CI@OCHIBGAE@PF?5Effect?5Custom?5UI?5Overlay?5Them@ DB 'PF Effect C'
	DB	'ustom UI Overlay Theme Suite', 00H		; `string'
CONST	ENDS
;	COMDAT ??_C@_0BK@CMHGHGNL@PF?5Effect?5Custom?5UI?5Suite?$AA@
CONST	SEGMENT
??_C@_0BK@CMHGHGNL@PF?5Effect?5Custom?5UI?5Suite?$AA@ DB 'PF Effect Custo'
	DB	'm UI Suite', 00H				; `string'
CONST	ENDS
;	COMDAT ??_C@_0BH@DBODAPGD@PF?5SamplingFloat?5Suite?$AA@
CONST	SEGMENT
??_C@_0BH@DBODAPGD@PF?5SamplingFloat?5Suite?$AA@ DB 'PF SamplingFloat Sui'
	DB	'te', 00H					; `string'
CONST	ENDS
;	COMDAT ??_C@_0BD@GPKPPDOH@PF?5ColorParamSuite?$AA@
CONST	SEGMENT
??_C@_0BD@GPKPPDOH@PF?5ColorParamSuite?$AA@ DB 'PF ColorParamSuite', 00H ; `string'
CONST	ENDS
;	COMDAT ??_C@_0BI@MJAMCLDB@PF?5Color?5Settings?5Suite?$AA@
CONST	SEGMENT
??_C@_0BI@MJAMCLDB@PF?5Color?5Settings?5Suite?$AA@ DB 'PF Color Settings '
	DB	'Suite', 00H					; `string'
CONST	ENDS
;	COMDAT ??_C@_0BL@LKLAICCP@AEGP?5Persistent?5Data?5Suite?$AA@
CONST	SEGMENT
??_C@_0BL@LKLAICCP@AEGP?5Persistent?5Data?5Suite?$AA@ DB 'AEGP Persistent'
	DB	' Data Suite', 00H				; `string'
CONST	ENDS
;	COMDAT ??_C@_0BD@LPACCDGH@AEGP?5Footage?5Suite?$AA@
CONST	SEGMENT
??_C@_0BD@LPACCDGH@AEGP?5Footage?5Suite?$AA@ DB 'AEGP Footage Suite', 00H ; `string'
CONST	ENDS
;	COMDAT ??_C@_0BA@GONLBGJF@AEGP?5Proj?5Suite?$AA@
CONST	SEGMENT
??_C@_0BA@GONLBGJF@AEGP?5Proj?5Suite?$AA@ DB 'AEGP Proj Suite', 00H ; `string'
CONST	ENDS
;	COMDAT ??_C@_0BF@OPIMHKKI@PF?5AE?5Adv?5Item?5Suite?$AA@
CONST	SEGMENT
??_C@_0BF@OPIMHKKI@PF?5AE?5Adv?5Item?5Suite?$AA@ DB 'PF AE Adv Item Suite'
	DB	00H						; `string'
CONST	ENDS
;	COMDAT ??_C@_0BI@FFBECFBP@AE?5Plugin?5Helper?5Suite2?$AA@
CONST	SEGMENT
??_C@_0BI@FFBECFBP@AE?5Plugin?5Helper?5Suite2?$AA@ DB 'AE Plugin Helper S'
	DB	'uite2', 00H					; `string'
CONST	ENDS
;	COMDAT ??_C@_0BL@EOJBEHFK@AEGP?5Tracker?5Utility?5Suite?$AA@
CONST	SEGMENT
??_C@_0BL@EOJBEHFK@AEGP?5Tracker?5Utility?5Suite?$AA@ DB 'AEGP Tracker Ut'
	DB	'ility Suite', 00H				; `string'
CONST	ENDS
;	COMDAT ??_C@_0BD@OKKDJPCJ@AEGP?5Tracker?5Suite?$AA@
CONST	SEGMENT
??_C@_0BD@OKKDJPCJ@AEGP?5Tracker?5Suite?$AA@ DB 'AEGP Tracker Suite', 00H ; `string'
CONST	ENDS
;	COMDAT ??_C@_0BK@FIOOIKGA@AEGP?5Render?5Options?5Suite?$AA@
CONST	SEGMENT
??_C@_0BK@FIOOIKGA@AEGP?5Render?5Options?5Suite?$AA@ DB 'AEGP Render Opti'
	DB	'ons Suite', 00H				; `string'
CONST	ENDS
;	COMDAT ??_C@_0BB@JDBEOMKC@AEGP?5World?5Suite?$AA@
CONST	SEGMENT
??_C@_0BB@JDBEOMKC@AEGP?5World?5Suite?$AA@ DB 'AEGP World Suite', 00H ; `string'
CONST	ENDS
;	COMDAT ??_C@_0BI@NIENNNHL@AEGP?5Artisan?5Util?5Suite?$AA@
CONST	SEGMENT
??_C@_0BI@NIENNNHL@AEGP?5Artisan?5Util?5Suite?$AA@ DB 'AEGP Artisan Util '
	DB	'Suite', 00H					; `string'
CONST	ENDS
;	COMDAT ??_C@_0BG@PIIKMEEM@AEGP?5Text?5Layer?5Suite?$AA@
CONST	SEGMENT
??_C@_0BG@PIIKMEEM@AEGP?5Text?5Layer?5Suite?$AA@ DB 'AEGP Text Layer Suit'
	DB	'e', 00H					; `string'
CONST	ENDS
;	COMDAT ??_C@_0BG@LOHBMOBH@AEGP?5Sound?5Data?5Suite?$AA@
CONST	SEGMENT
??_C@_0BG@LOHBMOBH@AEGP?5Sound?5Data?5Suite?$AA@ DB 'AEGP Sound Data Suit'
	DB	'e', 00H					; `string'
CONST	ENDS
;	COMDAT ??_C@_0BJ@KNOGBGJM@AEGP?5Text?5Document?5Suite?$AA@
CONST	SEGMENT
??_C@_0BJ@KNOGBGJM@AEGP?5Text?5Document?5Suite?$AA@ DB 'AEGP Text Documen'
	DB	't Suite', 00H				; `string'
CONST	ENDS
;	COMDAT ??_C@_0BG@CMDNGCIK@AEGP?5Collection?5Suite?$AA@
CONST	SEGMENT
??_C@_0BG@CMDNGCIK@AEGP?5Collection?5Suite?$AA@ DB 'AEGP Collection Suite'
	DB	00H						; `string'
CONST	ENDS
;	COMDAT ??_C@_0BG@CAKABFOI@PF?5iterateFloat?5Suite?$AA@
CONST	SEGMENT
??_C@_0BG@CAKABFOI@PF?5iterateFloat?5Suite?$AA@ DB 'PF iterateFloat Suite'
	DB	00H						; `string'
CONST	ENDS
;	COMDAT ??_C@_0BD@JCMAIAGE@PF?5iterate16?5Suite?$AA@
CONST	SEGMENT
??_C@_0BD@JCMAIAGE@PF?5iterate16?5Suite?$AA@ DB 'PF iterate16 Suite', 00H ; `string'
CONST	ENDS
;	COMDAT ??_C@_0BC@CCINLIIF@PF?5Iterate8?5Suite?$AA@
CONST	SEGMENT
??_C@_0BC@CCINLIIF@PF?5Iterate8?5Suite?$AA@ DB 'PF Iterate8 Suite', 00H ; `string'
CONST	ENDS
;	COMDAT ??_C@_0BE@GBHHNNAG@PF?5Sampling16?5Suite?$AA@
CONST	SEGMENT
??_C@_0BE@GBHHNNAG@PF?5Sampling16?5Suite?$AA@ DB 'PF Sampling16 Suite', 00H ; `string'
CONST	ENDS
;	COMDAT ??_C@_0BD@KEGEKMAJ@PF?5Sampling8?5Suite?$AA@
CONST	SEGMENT
??_C@_0BD@KEGEKMAJ@PF?5Sampling8?5Suite?$AA@ DB 'PF Sampling8 Suite', 00H ; `string'
CONST	ENDS
;	COMDAT ??_C@_0BP@EILMHMHP@AEGP?5File?5Import?5Manager?5Suite?$AA@
CONST	SEGMENT
??_C@_0BP@EILMHMHP@AEGP?5File?5Import?5Manager?5Suite?$AA@ DB 'AEGP File '
	DB	'Import Manager Suite', 00H			; `string'
CONST	ENDS
;	COMDAT ??_C@_0BJ@HNIFACM@AEGP?5Output?5Module?5Suite?$AA@
CONST	SEGMENT
??_C@_0BJ@HNIFACM@AEGP?5Output?5Module?5Suite?$AA@ DB 'AEGP Output Module'
	DB	' Suite', 00H				; `string'
CONST	ENDS
;	COMDAT ??_C@_0BN@JODPPADI@AEGP?5Render?5Queue?5Item?5Suite?$AA@
CONST	SEGMENT
??_C@_0BN@JODPPADI@AEGP?5Render?5Queue?5Item?5Suite?$AA@ DB 'AEGP Render '
	DB	'Queue Item Suite', 00H			; `string'
CONST	ENDS
;	COMDAT ??_C@_0BI@BEGHPPBM@AEGP?5Render?5Queue?5Suite?$AA@
CONST	SEGMENT
??_C@_0BI@BEGHPPBM@AEGP?5Render?5Queue?5Suite?$AA@ DB 'AEGP Render Queue '
	DB	'Suite', 00H					; `string'
CONST	ENDS
;	COMDAT ??_C@_0BC@IOIMFPHL@AEGP?5IO?5Out?5Suite?$AA@
CONST	SEGMENT
??_C@_0BC@IOIMFPHL@AEGP?5IO?5Out?5Suite?$AA@ DB 'AEGP IO Out Suite', 00H ; `string'
CONST	ENDS
;	COMDAT ??_C@_0BB@BEOGNAMG@AEGP?5IO?5In?5Suite?$AA@
CONST	SEGMENT
??_C@_0BB@BEOGNAMG@AEGP?5IO?5In?5Suite?$AA@ DB 'AEGP IO In Suite', 00H ; `string'
CONST	ENDS
;	COMDAT ??_C@_0P@ECPMHMCM@PF?5World?5Suite?$AA@
CONST	SEGMENT
??_C@_0P@ECPMHMCM@PF?5World?5Suite?$AA@ DB 'PF World Suite', 00H ; `string'
CONST	ENDS
;	COMDAT ??_C@_0BF@LKKDKFNJ@AEGP?5Composite?5Suite?$AA@
CONST	SEGMENT
??_C@_0BF@LKKDKFNJ@AEGP?5Composite?5Suite?$AA@ DB 'AEGP Composite Suite', 00H ; `string'
CONST	ENDS
;	COMDAT ??_C@_0BG@EFBNLDKC@AEGP?5QueryXform?5Suite?$AA@
CONST	SEGMENT
??_C@_0BG@EFBNLDKC@AEGP?5QueryXform?5Suite?$AA@ DB 'AEGP QueryXform Suite'
	DB	00H						; `string'
CONST	ENDS
;	COMDAT ??_C@_0BJ@HEIFEBFB@PF?5World?5Transform?5Suite?$AA@
CONST	SEGMENT
??_C@_0BJ@HEIFEBFB@PF?5World?5Transform?5Suite?$AA@ DB 'PF World Transfor'
	DB	'm Suite', 00H				; `string'
CONST	ENDS
;	COMDAT ??_C@_0BE@CIOKPFIG@PF?5Fill?5Matte?5Suite?$AA@
CONST	SEGMENT
??_C@_0BE@CIOKPFIG@PF?5Fill?5Matte?5Suite?$AA@ DB 'PF Fill Matte Suite', 00H ; `string'
CONST	ENDS
;	COMDAT ??_C@_0BA@CLDKMHPO@PF?5Handle?5Suite?$AA@
CONST	SEGMENT
??_C@_0BA@CLDKMHPO@PF?5Handle?5Suite?$AA@ DB 'PF Handle Suite', 00H ; `string'
CONST	ENDS
;	COMDAT ??_C@_0O@JPGHEGPP@PF?5ANSI?5Suite?$AA@
CONST	SEGMENT
??_C@_0O@JPGHEGPP@PF?5ANSI?5Suite?$AA@ DB 'PF ANSI Suite', 00H ; `string'
CONST	ENDS
;	COMDAT ??_C@_0BC@HGGIPEKD@AEGP?5Render?5Suite?$AA@
CONST	SEGMENT
??_C@_0BC@HGGIPEKD@AEGP?5Render?5Suite?$AA@ DB 'AEGP Render Suite', 00H ; `string'
CONST	ENDS
;	COMDAT ??_C@_0BD@KAJJLJOD@AEGP?5Utility?5Suite?$AA@
CONST	SEGMENT
??_C@_0BD@KAJJLJOD@AEGP?5Utility?5Suite?$AA@ DB 'AEGP Utility Suite', 00H ; `string'
CONST	ENDS
;	COMDAT ??_C@_0BD@GCCIJPBO@AEGP?5Command?5Suite?$AA@
CONST	SEGMENT
??_C@_0BD@GCCIJPBO@AEGP?5Command?5Suite?$AA@ DB 'AEGP Command Suite', 00H ; `string'
CONST	ENDS
;	COMDAT ??_C@_0BI@FEGCMHHE@AEGP?5Mask?5Outline?5Suite?$AA@
CONST	SEGMENT
??_C@_0BI@FEGCMHHE@AEGP?5Mask?5Outline?5Suite?$AA@ DB 'AEGP Mask Outline '
	DB	'Suite', 00H					; `string'
CONST	ENDS
;	COMDAT ??_C@_0BG@NPODDGJO@AEGP?5Layer?5Mask?5Suite?$AA@
CONST	SEGMENT
??_C@_0BG@NPODDGJO@AEGP?5Layer?5Mask?5Suite?$AA@ DB 'AEGP Layer Mask Suit'
	DB	'e', 00H					; `string'
CONST	ENDS
;	COMDAT ??_C@_0BC@CIPGHMKH@AEGP?5Effect?5Suite?$AA@
CONST	SEGMENT
??_C@_0BC@CIPGHMKH@AEGP?5Effect?5Suite?$AA@ DB 'AEGP Effect Suite', 00H ; `string'
CONST	ENDS
;	COMDAT ??_C@_0BB@OGPLEFJI@AEGP?5Light?5Suite?$AA@
CONST	SEGMENT
??_C@_0BB@OGPLEFJI@AEGP?5Light?5Suite?$AA@ DB 'AEGP Light Suite', 00H ; `string'
CONST	ENDS
;	COMDAT ??_C@_0BE@KFNBHDEF@PF?5AE?5Adv?5App?5Suite?$AA@
CONST	SEGMENT
??_C@_0BE@KFNBHDEF@PF?5AE?5Adv?5App?5Suite?$AA@ DB 'PF AE Adv App Suite', 00H ; `string'
CONST	ENDS
;	COMDAT ??_C@_0BA@OEHNFJMG@PF?5AE?5App?5Suite?$AA@
CONST	SEGMENT
??_C@_0BA@OEHNFJMG@PF?5AE?5App?5Suite?$AA@ DB 'PF AE App Suite', 00H ; `string'
CONST	ENDS
;	COMDAT ??_C@_0BD@PNACFLBF@PF?5Path?5Data?5Suite?$AA@
CONST	SEGMENT
??_C@_0BD@PNACFLBF@PF?5Path?5Data?5Suite?$AA@ DB 'PF Path Data Suite', 00H ; `string'
CONST	ENDS
;	COMDAT ??_C@_0BC@BBNGCJFE@AEGP?5Memory?5Suite?$AA@
CONST	SEGMENT
??_C@_0BC@BBNGCJFE@AEGP?5Memory?5Suite?$AA@ DB 'AEGP Memory Suite', 00H ; `string'
CONST	ENDS
;	COMDAT ??_C@_0BE@POIEDIGD@PF?5Path?5Query?5Suite?$AA@
CONST	SEGMENT
??_C@_0BE@POIEDIGD@PF?5Path?5Query?5Suite?$AA@ DB 'PF Path Query Suite', 00H ; `string'
CONST	ENDS
;	COMDAT ??_C@_0BI@NNBKMHEK@AEGP?5PF?5Interface?5Suite?$AA@
CONST	SEGMENT
??_C@_0BI@NNBKMHEK@AEGP?5PF?5Interface?5Suite?$AA@ DB 'AEGP PF Interface '
	DB	'Suite', 00H					; `string'
CONST	ENDS
;	COMDAT ??_C@_0BA@CJJFBPBL@AEGP?5Item?5Suite?$AA@
CONST	SEGMENT
??_C@_0BA@CJJFBPBL@AEGP?5Item?5Suite?$AA@ DB 'AEGP Item Suite', 00H ; `string'
CONST	ENDS
;	COMDAT ??_C@_0BE@CEIMNFLD@AEGP?5Register?5Suite?$AA@
CONST	SEGMENT
??_C@_0BE@CEIMNFLD@AEGP?5Register?5Suite?$AA@ DB 'AEGP Register Suite', 00H ; `string'
CONST	ENDS
;	COMDAT ??_C@_0BC@FAEKKEMM@AEGP?5Camera?5Suite?$AA@
CONST	SEGMENT
??_C@_0BC@FAEKKEMM@AEGP?5Camera?5Suite?$AA@ DB 'AEGP Camera Suite', 00H ; `string'
CONST	ENDS
;	COMDAT ??_C@_0BC@KOOCLAME@AEGP?5Canvas?5Suite?$AA@
CONST	SEGMENT
??_C@_0BC@KOOCLAME@AEGP?5Canvas?5Suite?$AA@ DB 'AEGP Canvas Suite', 00H ; `string'
CONST	ENDS
;	COMDAT ??_C@_0BA@EIBCLLGC@AEGP?5Comp?5Suite?$AA@
CONST	SEGMENT
??_C@_0BA@EIBCLLGC@AEGP?5Comp?5Suite?$AA@ DB 'AEGP Comp Suite', 00H ; `string'
CONST	ENDS
;	COMDAT ??_C@_0BE@OHEGGHMO@AEGP?5Keyframe?5Suite?$AA@
CONST	SEGMENT
??_C@_0BE@OHEGGHMO@AEGP?5Keyframe?5Suite?$AA@ DB 'AEGP Keyframe Suite', 00H ; `string'
CONST	ENDS
;	COMDAT ??_C@_0BK@ELNHACLA@AEGP?5Dynamic?5Stream?5Suite?$AA@
CONST	SEGMENT
??_C@_0BK@ELNHACLA@AEGP?5Dynamic?5Stream?5Suite?$AA@ DB 'AEGP Dynamic Str'
	DB	'eam Suite', 00H				; `string'
CONST	ENDS
;	COMDAT ??_C@_0BC@IPBKMDAM@AEGP?5Stream?5Suite?$AA@
CONST	SEGMENT
??_C@_0BC@IPBKMDAM@AEGP?5Stream?5Suite?$AA@ DB 'AEGP Stream Suite', 00H ; `string'
CONST	ENDS
;	COMDAT ??_C@_0BB@FCHPPLFG@AEGP?5Layer?5Suite?$AA@
CONST	SEGMENT
??_C@_0BB@FCHPPLFG@AEGP?5Layer?5Suite?$AA@ DB 'AEGP Layer Suite', 00H ; `string'
CONST	ENDS
;	COMDAT ??_C@_0BC@LDPOLBLC@AEGP?5Marker?5Suite?$AA@
CONST	SEGMENT
??_C@_0BC@LDPOLBLC@AEGP?5Marker?5Suite?$AA@ DB 'AEGP Marker Suite', 00H ; `string'
CONST	ENDS
;	COMDAT xdata
xdata	SEGMENT
$unwind$?ReleaseAllSuites@AEGP_SuiteHandler@@AEAAXXZ DD 010901H
	DD	04209H
xdata	ENDS
xdata	SEGMENT
$unwind$?ReleaseSuite@AEGP_SuiteHandler@@AEAAXPEADJ@Z DD 011301H
	DD	04213H
$unwind$??0AEGP_SuiteHandler@@QEAA@PEBUSPBasicSuite@@@Z DD 010e01H
	DD	0620eH
$unwind$??1AEGP_SuiteHandler@@QEAA@XZ DD 010901H
	DD	04209H
xdata	ENDS
; Function compile flags: /Odtp
; File c:\users\syuilo\documents\visual studio 2013\projects\after_effects_cs5_sdk_win\adobe after effects cs5 win sdk\examples\util\aegp_suitehandler.cpp
_TEXT	SEGMENT
this$ = 48
??1AEGP_SuiteHandler@@QEAA@XZ PROC			; AEGP_SuiteHandler::~AEGP_SuiteHandler

; 44   : {

$LN3:
	mov	QWORD PTR [rsp+8], rcx
	sub	rsp, 40					; 00000028H

; 45   : 	ReleaseAllSuites();

	mov	rcx, QWORD PTR this$[rsp]
	call	?ReleaseAllSuites@AEGP_SuiteHandler@@AEAAXXZ ; AEGP_SuiteHandler::ReleaseAllSuites

; 46   : }

	add	rsp, 40					; 00000028H
	ret	0
??1AEGP_SuiteHandler@@QEAA@XZ ENDP			; AEGP_SuiteHandler::~AEGP_SuiteHandler
_TEXT	ENDS
; Function compile flags: /Odtp
; File c:\users\syuilo\documents\visual studio 2013\projects\after_effects_cs5_sdk_win\adobe after effects cs5 win sdk\examples\util\aegp_suitehandler.cpp
_TEXT	SEGMENT
_t$1 = 32
tv68 = 36
_p$2 = 40
this$ = 64
pica_basicP$ = 72
??0AEGP_SuiteHandler@@QEAA@PEBUSPBasicSuite@@@Z PROC	; AEGP_SuiteHandler::AEGP_SuiteHandler

; 35   : {

$LN9:
	mov	QWORD PTR [rsp+16], rdx
	mov	QWORD PTR [rsp+8], rcx
	sub	rsp, 56					; 00000038H
	mov	rax, QWORD PTR this$[rsp]
	mov	rcx, QWORD PTR pica_basicP$[rsp]
	mov	QWORD PTR [rax], rcx
$LN6@AEGP_Suite:

; 36   : 	AEFX_CLR_STRUCT(i_suites);

	mov	DWORD PTR _t$1[rsp], 848		; 00000350H
	mov	rax, QWORD PTR this$[rsp]
	add	rax, 8
	mov	QWORD PTR _p$2[rsp], rax
$LN3@AEGP_Suite:
	mov	eax, DWORD PTR _t$1[rsp]
	mov	DWORD PTR tv68[rsp], eax
	mov	eax, DWORD PTR _t$1[rsp]
	dec	eax
	mov	DWORD PTR _t$1[rsp], eax
	cmp	DWORD PTR tv68[rsp], 0
	je	SHORT $LN2@AEGP_Suite
	mov	rax, QWORD PTR _p$2[rsp]
	mov	BYTE PTR [rax], 0
	mov	rax, QWORD PTR _p$2[rsp]
	inc	rax
	mov	QWORD PTR _p$2[rsp], rax
	jmp	SHORT $LN3@AEGP_Suite
$LN2@AEGP_Suite:
	xor	eax, eax
	test	eax, eax
	jne	SHORT $LN6@AEGP_Suite

; 37   : 
; 38   : 	if (!i_pica_basicP) {						//can't construct w/out basic suite, everything else is demand loaded

	mov	rax, QWORD PTR this$[rsp]
	cmp	QWORD PTR [rax], 0
	jne	SHORT $LN1@AEGP_Suite

; 39   : 		MissingSuiteError();

	mov	rcx, QWORD PTR this$[rsp]
	call	?MissingSuiteError@AEGP_SuiteHandler@@AEBAXXZ ; AEGP_SuiteHandler::MissingSuiteError
$LN1@AEGP_Suite:

; 40   : 	}
; 41   : }

	mov	rax, QWORD PTR this$[rsp]
	add	rsp, 56					; 00000038H
	ret	0
??0AEGP_SuiteHandler@@QEAA@PEBUSPBasicSuite@@@Z ENDP	; AEGP_SuiteHandler::AEGP_SuiteHandler
_TEXT	ENDS
; Function compile flags: /Odtp
; File c:\users\syuilo\documents\visual studio 2013\projects\after_effects_cs5_sdk_win\adobe after effects cs5 win sdk\examples\util\aegp_suitehandler.h
;	COMDAT ?ReleaseAllSuites@AEGP_SuiteHandler@@AEAAXXZ
_TEXT	SEGMENT
this$ = 48
?ReleaseAllSuites@AEGP_SuiteHandler@@AEAAXXZ PROC	; AEGP_SuiteHandler::ReleaseAllSuites, COMDAT

; 231  : 	{

$LN104:
	mov	QWORD PTR [rsp+8], rcx
	sub	rsp, 40					; 00000028H

; 232  : 		#define	AEGP_SUITE_RELEASE_BOILERPLATE(MEMBER_NAME, kSUITE_NAME, kVERSION_NAME)		\
; 233  : 			if (i_suites.MEMBER_NAME) {														\
; 234  : 				ReleaseSuite(kSUITE_NAME, kVERSION_NAME);									\
; 235  : 			}
; 236  : 
; 237  : 		AEGP_SUITE_RELEASE_BOILERPLATE(marker_suite1P, kAEGPMarkerSuite, kAEGPMarkerSuiteVersion1);

	mov	rax, QWORD PTR this$[rsp]
	cmp	QWORD PTR [rax+32], 0
	je	SHORT $LN101@ReleaseAll
	mov	r8d, 1
	lea	rdx, OFFSET FLAT:??_C@_0BC@LDPOLBLC@AEGP?5Marker?5Suite?$AA@
	mov	rcx, QWORD PTR this$[rsp]
	call	?ReleaseSuite@AEGP_SuiteHandler@@AEAAXPEADJ@Z ; AEGP_SuiteHandler::ReleaseSuite
$LN101@ReleaseAll:

; 238  : 		AEGP_SUITE_RELEASE_BOILERPLATE(marker_suite2P, kAEGPMarkerSuite, kAEGPMarkerSuiteVersion2);

	mov	rax, QWORD PTR this$[rsp]
	cmp	QWORD PTR [rax+40], 0
	je	SHORT $LN100@ReleaseAll
	mov	r8d, 2
	lea	rdx, OFFSET FLAT:??_C@_0BC@LDPOLBLC@AEGP?5Marker?5Suite?$AA@
	mov	rcx, QWORD PTR this$[rsp]
	call	?ReleaseSuite@AEGP_SuiteHandler@@AEAAXPEADJ@Z ; AEGP_SuiteHandler::ReleaseSuite
$LN100@ReleaseAll:

; 239  : 		AEGP_SUITE_RELEASE_BOILERPLATE(layer_suite3P, kAEGPLayerSuite, kAEGPLayerSuiteVersion3);

	mov	rax, QWORD PTR this$[rsp]
	cmp	QWORD PTR [rax+80], 0
	je	SHORT $LN99@ReleaseAll
	mov	r8d, 8
	lea	rdx, OFFSET FLAT:??_C@_0BB@FCHPPLFG@AEGP?5Layer?5Suite?$AA@
	mov	rcx, QWORD PTR this$[rsp]
	call	?ReleaseSuite@AEGP_SuiteHandler@@AEAAXPEADJ@Z ; AEGP_SuiteHandler::ReleaseSuite
$LN99@ReleaseAll:

; 240  : 		AEGP_SUITE_RELEASE_BOILERPLATE(layer_suite4P, kAEGPLayerSuite, kAEGPLayerSuiteVersion4);

	mov	rax, QWORD PTR this$[rsp]
	cmp	QWORD PTR [rax+88], 0
	je	SHORT $LN98@ReleaseAll
	mov	r8d, 10
	lea	rdx, OFFSET FLAT:??_C@_0BB@FCHPPLFG@AEGP?5Layer?5Suite?$AA@
	mov	rcx, QWORD PTR this$[rsp]
	call	?ReleaseSuite@AEGP_SuiteHandler@@AEAAXPEADJ@Z ; AEGP_SuiteHandler::ReleaseSuite
$LN98@ReleaseAll:

; 241  : 		AEGP_SUITE_RELEASE_BOILERPLATE(stream_suite4P, kAEGPStreamSuite, kAEGPStreamSuiteVersion4);

	mov	rax, QWORD PTR this$[rsp]
	cmp	QWORD PTR [rax+24], 0
	je	SHORT $LN97@ReleaseAll
	mov	r8d, 9
	lea	rdx, OFFSET FLAT:??_C@_0BC@IPBKMDAM@AEGP?5Stream?5Suite?$AA@
	mov	rcx, QWORD PTR this$[rsp]
	call	?ReleaseSuite@AEGP_SuiteHandler@@AEAAXPEADJ@Z ; AEGP_SuiteHandler::ReleaseSuite
$LN97@ReleaseAll:

; 242  : 		AEGP_SUITE_RELEASE_BOILERPLATE(stream_suite3P, kAEGPStreamSuite, kAEGPStreamSuiteVersion3);

	mov	rax, QWORD PTR this$[rsp]
	cmp	QWORD PTR [rax+16], 0
	je	SHORT $LN96@ReleaseAll
	mov	r8d, 8
	lea	rdx, OFFSET FLAT:??_C@_0BC@IPBKMDAM@AEGP?5Stream?5Suite?$AA@
	mov	rcx, QWORD PTR this$[rsp]
	call	?ReleaseSuite@AEGP_SuiteHandler@@AEAAXPEADJ@Z ; AEGP_SuiteHandler::ReleaseSuite
$LN96@ReleaseAll:

; 243  : 		AEGP_SUITE_RELEASE_BOILERPLATE(stream_suite2P, kAEGPStreamSuite, kAEGPStreamSuiteVersion2);

	mov	rax, QWORD PTR this$[rsp]
	cmp	QWORD PTR [rax+96], 0
	je	SHORT $LN95@ReleaseAll
	mov	r8d, 7
	lea	rdx, OFFSET FLAT:??_C@_0BC@IPBKMDAM@AEGP?5Stream?5Suite?$AA@
	mov	rcx, QWORD PTR this$[rsp]
	call	?ReleaseSuite@AEGP_SuiteHandler@@AEAAXPEADJ@Z ; AEGP_SuiteHandler::ReleaseSuite
$LN95@ReleaseAll:

; 244  : 		AEGP_SUITE_RELEASE_BOILERPLATE(stream_suite_1P, kAEGPStreamSuite, kAEGPStreamSuiteVersion1);

	mov	rax, QWORD PTR this$[rsp]
	cmp	QWORD PTR [rax+656], 0
	je	SHORT $LN94@ReleaseAll
	mov	r8d, 4
	lea	rdx, OFFSET FLAT:??_C@_0BC@IPBKMDAM@AEGP?5Stream?5Suite?$AA@
	mov	rcx, QWORD PTR this$[rsp]
	call	?ReleaseSuite@AEGP_SuiteHandler@@AEAAXPEADJ@Z ; AEGP_SuiteHandler::ReleaseSuite
$LN94@ReleaseAll:

; 245  : 		AEGP_SUITE_RELEASE_BOILERPLATE(dynamic_stream_suite2P, kAEGPDynamicStreamSuite, kAEGPDynamicStreamSuiteVersion2);

	mov	rax, QWORD PTR this$[rsp]
	cmp	QWORD PTR [rax+104], 0
	je	SHORT $LN93@ReleaseAll
	mov	r8d, 2
	lea	rdx, OFFSET FLAT:??_C@_0BK@ELNHACLA@AEGP?5Dynamic?5Stream?5Suite?$AA@
	mov	rcx, QWORD PTR this$[rsp]
	call	?ReleaseSuite@AEGP_SuiteHandler@@AEAAXPEADJ@Z ; AEGP_SuiteHandler::ReleaseSuite
$LN93@ReleaseAll:

; 246  : 		AEGP_SUITE_RELEASE_BOILERPLATE(dynamic_stream_suite3P, kAEGPDynamicStreamSuite, kAEGPDynamicStreamSuiteVersion3);

	mov	rax, QWORD PTR this$[rsp]
	cmp	QWORD PTR [rax+112], 0
	je	SHORT $LN92@ReleaseAll
	mov	r8d, 3
	lea	rdx, OFFSET FLAT:??_C@_0BK@ELNHACLA@AEGP?5Dynamic?5Stream?5Suite?$AA@
	mov	rcx, QWORD PTR this$[rsp]
	call	?ReleaseSuite@AEGP_SuiteHandler@@AEAAXPEADJ@Z ; AEGP_SuiteHandler::ReleaseSuite
$LN92@ReleaseAll:

; 247  : 		AEGP_SUITE_RELEASE_BOILERPLATE(dynamic_stream_suite4P, kAEGPDynamicStreamSuite, kAEGPDynamicStreamSuiteVersion4);

	mov	rax, QWORD PTR this$[rsp]
	cmp	QWORD PTR [rax+120], 0
	je	SHORT $LN91@ReleaseAll
	mov	r8d, 5
	lea	rdx, OFFSET FLAT:??_C@_0BK@ELNHACLA@AEGP?5Dynamic?5Stream?5Suite?$AA@
	mov	rcx, QWORD PTR this$[rsp]
	call	?ReleaseSuite@AEGP_SuiteHandler@@AEAAXPEADJ@Z ; AEGP_SuiteHandler::ReleaseSuite
$LN91@ReleaseAll:

; 248  : 		AEGP_SUITE_RELEASE_BOILERPLATE(keyframe_suite4P, kAEGPKeyframeSuite, kAEGPKeyframeSuiteVersion4);

	mov	rax, QWORD PTR this$[rsp]
	cmp	QWORD PTR [rax+8], 0
	je	SHORT $LN90@ReleaseAll
	mov	r8d, 4
	lea	rdx, OFFSET FLAT:??_C@_0BE@OHEGGHMO@AEGP?5Keyframe?5Suite?$AA@
	mov	rcx, QWORD PTR this$[rsp]
	call	?ReleaseSuite@AEGP_SuiteHandler@@AEAAXPEADJ@Z ; AEGP_SuiteHandler::ReleaseSuite
$LN90@ReleaseAll:

; 249  : 		AEGP_SUITE_RELEASE_BOILERPLATE(keyframe_suite3P, kAEGPKeyframeSuite, kAEGPKeyframeSuiteVersion3);

	mov	rax, QWORD PTR this$[rsp]
	cmp	QWORD PTR [rax+128], 0
	je	SHORT $LN89@ReleaseAll
	mov	r8d, 3
	lea	rdx, OFFSET FLAT:??_C@_0BE@OHEGGHMO@AEGP?5Keyframe?5Suite?$AA@
	mov	rcx, QWORD PTR this$[rsp]
	call	?ReleaseSuite@AEGP_SuiteHandler@@AEAAXPEADJ@Z ; AEGP_SuiteHandler::ReleaseSuite
$LN89@ReleaseAll:

; 250  : 		AEGP_SUITE_RELEASE_BOILERPLATE(keyframe_suite_1P, kAEGPKeyframeSuite, kAEGPKeyframeSuiteVersion1);

	mov	rax, QWORD PTR this$[rsp]
	cmp	QWORD PTR [rax+680], 0
	je	SHORT $LN88@ReleaseAll
	mov	r8d, 1
	lea	rdx, OFFSET FLAT:??_C@_0BE@OHEGGHMO@AEGP?5Keyframe?5Suite?$AA@
	mov	rcx, QWORD PTR this$[rsp]
	call	?ReleaseSuite@AEGP_SuiteHandler@@AEAAXPEADJ@Z ; AEGP_SuiteHandler::ReleaseSuite
$LN88@ReleaseAll:

; 251  : 		AEGP_SUITE_RELEASE_BOILERPLATE(comp_suite4P, kAEGPCompSuite, kAEGPCompSuiteVersion4);

	mov	rax, QWORD PTR this$[rsp]
	cmp	QWORD PTR [rax+48], 0
	je	SHORT $LN87@ReleaseAll
	mov	r8d, 9
	lea	rdx, OFFSET FLAT:??_C@_0BA@EIBCLLGC@AEGP?5Comp?5Suite?$AA@
	mov	rcx, QWORD PTR this$[rsp]
	call	?ReleaseSuite@AEGP_SuiteHandler@@AEAAXPEADJ@Z ; AEGP_SuiteHandler::ReleaseSuite
$LN87@ReleaseAll:

; 252  : 		AEGP_SUITE_RELEASE_BOILERPLATE(comp_suite5P, kAEGPCompSuite, kAEGPCompSuiteVersion5);

	mov	rax, QWORD PTR this$[rsp]
	cmp	QWORD PTR [rax+56], 0
	je	SHORT $LN86@ReleaseAll
	mov	r8d, 11
	lea	rdx, OFFSET FLAT:??_C@_0BA@EIBCLLGC@AEGP?5Comp?5Suite?$AA@
	mov	rcx, QWORD PTR this$[rsp]
	call	?ReleaseSuite@AEGP_SuiteHandler@@AEAAXPEADJ@Z ; AEGP_SuiteHandler::ReleaseSuite
$LN86@ReleaseAll:

; 253  : 		AEGP_SUITE_RELEASE_BOILERPLATE(comp_suite6P, kAEGPCompSuite, kAEGPCompSuiteVersion6);

	mov	rax, QWORD PTR this$[rsp]
	cmp	QWORD PTR [rax+64], 0
	je	SHORT $LN85@ReleaseAll
	mov	r8d, 14
	lea	rdx, OFFSET FLAT:??_C@_0BA@EIBCLLGC@AEGP?5Comp?5Suite?$AA@
	mov	rcx, QWORD PTR this$[rsp]
	call	?ReleaseSuite@AEGP_SuiteHandler@@AEAAXPEADJ@Z ; AEGP_SuiteHandler::ReleaseSuite
$LN85@ReleaseAll:

; 254  : 		AEGP_SUITE_RELEASE_BOILERPLATE(canvas_suite5P, kAEGPCanvasSuite, kAEGPCanvasSuiteVersion5);

	mov	rax, QWORD PTR this$[rsp]
	cmp	QWORD PTR [rax+136], 0
	je	SHORT $LN84@ReleaseAll
	mov	r8d, 10
	lea	rdx, OFFSET FLAT:??_C@_0BC@KOOCLAME@AEGP?5Canvas?5Suite?$AA@
	mov	rcx, QWORD PTR this$[rsp]
	call	?ReleaseSuite@AEGP_SuiteHandler@@AEAAXPEADJ@Z ; AEGP_SuiteHandler::ReleaseSuite
$LN84@ReleaseAll:

; 255  : 		AEGP_SUITE_RELEASE_BOILERPLATE(canvas_suite6P, kAEGPCanvasSuite, kAEGPCanvasSuiteVersion6);

	mov	rax, QWORD PTR this$[rsp]
	cmp	QWORD PTR [rax+144], 0
	je	SHORT $LN83@ReleaseAll
	mov	r8d, 11
	lea	rdx, OFFSET FLAT:??_C@_0BC@KOOCLAME@AEGP?5Canvas?5Suite?$AA@
	mov	rcx, QWORD PTR this$[rsp]
	call	?ReleaseSuite@AEGP_SuiteHandler@@AEAAXPEADJ@Z ; AEGP_SuiteHandler::ReleaseSuite
$LN83@ReleaseAll:

; 256  : 		AEGP_SUITE_RELEASE_BOILERPLATE(camera_suite2P, kAEGPCameraSuite, kAEGPCameraSuiteVersion2);

	mov	rax, QWORD PTR this$[rsp]
	cmp	QWORD PTR [rax+160], 0
	je	SHORT $LN82@ReleaseAll
	mov	r8d, 2
	lea	rdx, OFFSET FLAT:??_C@_0BC@FAEKKEMM@AEGP?5Camera?5Suite?$AA@
	mov	rcx, QWORD PTR this$[rsp]
	call	?ReleaseSuite@AEGP_SuiteHandler@@AEAAXPEADJ@Z ; AEGP_SuiteHandler::ReleaseSuite
$LN82@ReleaseAll:

; 257  : 		AEGP_SUITE_RELEASE_BOILERPLATE(register_suite5P, kAEGPRegisterSuite, kAEGPRegisterSuiteVersion5);

	mov	rax, QWORD PTR this$[rsp]
	cmp	QWORD PTR [rax+168], 0
	je	SHORT $LN81@ReleaseAll
	mov	r8d, 6
	lea	rdx, OFFSET FLAT:??_C@_0BE@CEIMNFLD@AEGP?5Register?5Suite?$AA@
	mov	rcx, QWORD PTR this$[rsp]
	call	?ReleaseSuite@AEGP_SuiteHandler@@AEAAXPEADJ@Z ; AEGP_SuiteHandler::ReleaseSuite
$LN81@ReleaseAll:

; 258  : 		AEGP_SUITE_RELEASE_BOILERPLATE(item_suite8P, kAEGPItemSuite, kAEGPItemSuiteVersion8);

	mov	rax, QWORD PTR this$[rsp]
	cmp	QWORD PTR [rax+184], 0
	je	SHORT $LN80@ReleaseAll
	mov	r8d, 13
	lea	rdx, OFFSET FLAT:??_C@_0BA@CJJFBPBL@AEGP?5Item?5Suite?$AA@
	mov	rcx, QWORD PTR this$[rsp]
	call	?ReleaseSuite@AEGP_SuiteHandler@@AEAAXPEADJ@Z ; AEGP_SuiteHandler::ReleaseSuite
$LN80@ReleaseAll:

; 259  : 		AEGP_SUITE_RELEASE_BOILERPLATE(item_suite7P, kAEGPItemSuite, kAEGPItemSuiteVersion7);

	mov	rax, QWORD PTR this$[rsp]
	cmp	QWORD PTR [rax+192], 0
	je	SHORT $LN79@ReleaseAll
	mov	r8d, 11
	lea	rdx, OFFSET FLAT:??_C@_0BA@CJJFBPBL@AEGP?5Item?5Suite?$AA@
	mov	rcx, QWORD PTR this$[rsp]
	call	?ReleaseSuite@AEGP_SuiteHandler@@AEAAXPEADJ@Z ; AEGP_SuiteHandler::ReleaseSuite
$LN79@ReleaseAll:

; 260  : 		AEGP_SUITE_RELEASE_BOILERPLATE(item_suite6P, kAEGPItemSuite, kAEGPItemSuiteVersion6);

	mov	rax, QWORD PTR this$[rsp]
	cmp	QWORD PTR [rax+200], 0
	je	SHORT $LN78@ReleaseAll
	mov	r8d, 10
	lea	rdx, OFFSET FLAT:??_C@_0BA@CJJFBPBL@AEGP?5Item?5Suite?$AA@
	mov	rcx, QWORD PTR this$[rsp]
	call	?ReleaseSuite@AEGP_SuiteHandler@@AEAAXPEADJ@Z ; AEGP_SuiteHandler::ReleaseSuite
$LN78@ReleaseAll:

; 261  : 		AEGP_SUITE_RELEASE_BOILERPLATE(item_suite5P, kAEGPItemSuite, kAEGPItemSuiteVersion5);

	mov	rax, QWORD PTR this$[rsp]
	cmp	QWORD PTR [rax+208], 0
	je	SHORT $LN77@ReleaseAll
	mov	r8d, 7
	lea	rdx, OFFSET FLAT:??_C@_0BA@CJJFBPBL@AEGP?5Item?5Suite?$AA@
	mov	rcx, QWORD PTR this$[rsp]
	call	?ReleaseSuite@AEGP_SuiteHandler@@AEAAXPEADJ@Z ; AEGP_SuiteHandler::ReleaseSuite
$LN77@ReleaseAll:

; 262  : 		AEGP_SUITE_RELEASE_BOILERPLATE(item_suite1P, kAEGPItemSuite, kAEGPItemSuiteVersion1);

	mov	rax, QWORD PTR this$[rsp]
	cmp	QWORD PTR [rax+216], 0
	je	SHORT $LN76@ReleaseAll
	mov	r8d, 3
	lea	rdx, OFFSET FLAT:??_C@_0BA@CJJFBPBL@AEGP?5Item?5Suite?$AA@
	mov	rcx, QWORD PTR this$[rsp]
	call	?ReleaseSuite@AEGP_SuiteHandler@@AEAAXPEADJ@Z ; AEGP_SuiteHandler::ReleaseSuite
$LN76@ReleaseAll:

; 263  : 		AEGP_SUITE_RELEASE_BOILERPLATE(pf_interface_suite1P, kAEGPPFInterfaceSuite, kAEGPPFInterfaceSuiteVersion1);

	mov	rax, QWORD PTR this$[rsp]
	cmp	QWORD PTR [rax+368], 0
	je	SHORT $LN75@ReleaseAll
	mov	r8d, 1
	lea	rdx, OFFSET FLAT:??_C@_0BI@NNBKMHEK@AEGP?5PF?5Interface?5Suite?$AA@
	mov	rcx, QWORD PTR this$[rsp]
	call	?ReleaseSuite@AEGP_SuiteHandler@@AEAAXPEADJ@Z ; AEGP_SuiteHandler::ReleaseSuite
$LN75@ReleaseAll:

; 264  : 		AEGP_SUITE_RELEASE_BOILERPLATE(path_query_suite1P, kPFPathQuerySuite, kPFPathQuerySuiteVersion1);

	mov	rax, QWORD PTR this$[rsp]
	cmp	QWORD PTR [rax+376], 0
	je	SHORT $LN74@ReleaseAll
	mov	r8d, 1
	lea	rdx, OFFSET FLAT:??_C@_0BE@POIEDIGD@PF?5Path?5Query?5Suite?$AA@
	mov	rcx, QWORD PTR this$[rsp]
	call	?ReleaseSuite@AEGP_SuiteHandler@@AEAAXPEADJ@Z ; AEGP_SuiteHandler::ReleaseSuite
$LN74@ReleaseAll:

; 265  : 		AEGP_SUITE_RELEASE_BOILERPLATE(memory_suite1P, kAEGPMemorySuite, kAEGPMemorySuiteVersion1);

	mov	rax, QWORD PTR this$[rsp]
	cmp	QWORD PTR [rax+176], 0
	je	SHORT $LN73@ReleaseAll
	mov	r8d, 1
	lea	rdx, OFFSET FLAT:??_C@_0BC@BBNGCJFE@AEGP?5Memory?5Suite?$AA@
	mov	rcx, QWORD PTR this$[rsp]
	call	?ReleaseSuite@AEGP_SuiteHandler@@AEAAXPEADJ@Z ; AEGP_SuiteHandler::ReleaseSuite
$LN73@ReleaseAll:

; 266  : 		AEGP_SUITE_RELEASE_BOILERPLATE(path_data_suite1P, kPFPathDataSuite, kPFPathDataSuiteVersion1);

	mov	rax, QWORD PTR this$[rsp]
	cmp	QWORD PTR [rax+384], 0
	je	SHORT $LN72@ReleaseAll
	mov	r8d, 1
	lea	rdx, OFFSET FLAT:??_C@_0BD@PNACFLBF@PF?5Path?5Data?5Suite?$AA@
	mov	rcx, QWORD PTR this$[rsp]
	call	?ReleaseSuite@AEGP_SuiteHandler@@AEAAXPEADJ@Z ; AEGP_SuiteHandler::ReleaseSuite
$LN72@ReleaseAll:

; 267  : 		AEGP_SUITE_RELEASE_BOILERPLATE(param_utils_suite1P, kPFPathDataSuite, kPFPathDataSuiteVersion1);

	mov	rax, QWORD PTR this$[rsp]
	cmp	QWORD PTR [rax+392], 0
	je	SHORT $LN71@ReleaseAll
	mov	r8d, 1
	lea	rdx, OFFSET FLAT:??_C@_0BD@PNACFLBF@PF?5Path?5Data?5Suite?$AA@
	mov	rcx, QWORD PTR this$[rsp]
	call	?ReleaseSuite@AEGP_SuiteHandler@@AEAAXPEADJ@Z ; AEGP_SuiteHandler::ReleaseSuite
$LN71@ReleaseAll:

; 268  : 		AEGP_SUITE_RELEASE_BOILERPLATE(app_suite4P, kPFAppSuite, kPFAppSuiteVersion4);

	mov	rax, QWORD PTR this$[rsp]
	cmp	QWORD PTR [rax+400], 0
	je	SHORT $LN70@ReleaseAll
	mov	r8d, 6
	lea	rdx, OFFSET FLAT:??_C@_0BA@OEHNFJMG@PF?5AE?5App?5Suite?$AA@
	mov	rcx, QWORD PTR this$[rsp]
	call	?ReleaseSuite@AEGP_SuiteHandler@@AEAAXPEADJ@Z ; AEGP_SuiteHandler::ReleaseSuite
$LN70@ReleaseAll:

; 269  : 		AEGP_SUITE_RELEASE_BOILERPLATE(adv_app_suite2P, kPFAdvAppSuite, kPFAdvAppSuiteVersion2);

	mov	rax, QWORD PTR this$[rsp]
	cmp	QWORD PTR [rax+408], 0
	je	SHORT $LN69@ReleaseAll
	mov	r8d, 2
	lea	rdx, OFFSET FLAT:??_C@_0BE@KFNBHDEF@PF?5AE?5Adv?5App?5Suite?$AA@
	mov	rcx, QWORD PTR this$[rsp]
	call	?ReleaseSuite@AEGP_SuiteHandler@@AEAAXPEADJ@Z ; AEGP_SuiteHandler::ReleaseSuite
$LN69@ReleaseAll:

; 270  : 		AEGP_SUITE_RELEASE_BOILERPLATE(light_suite1P, kAEGPLightSuite, kAEGPLightSuiteVersion1);

	mov	rax, QWORD PTR this$[rsp]
	cmp	QWORD PTR [rax+224], 0
	je	SHORT $LN68@ReleaseAll
	mov	r8d, 1
	lea	rdx, OFFSET FLAT:??_C@_0BB@OGPLEFJI@AEGP?5Light?5Suite?$AA@
	mov	rcx, QWORD PTR this$[rsp]
	call	?ReleaseSuite@AEGP_SuiteHandler@@AEAAXPEADJ@Z ; AEGP_SuiteHandler::ReleaseSuite
$LN68@ReleaseAll:

; 271  : 		AEGP_SUITE_RELEASE_BOILERPLATE(light_suite2P, kAEGPLightSuite, kAEGPLightSuiteVersion2);

	mov	rax, QWORD PTR this$[rsp]
	cmp	QWORD PTR [rax+232], 0
	je	SHORT $LN67@ReleaseAll
	mov	r8d, 2
	lea	rdx, OFFSET FLAT:??_C@_0BB@OGPLEFJI@AEGP?5Light?5Suite?$AA@
	mov	rcx, QWORD PTR this$[rsp]
	call	?ReleaseSuite@AEGP_SuiteHandler@@AEAAXPEADJ@Z ; AEGP_SuiteHandler::ReleaseSuite
$LN67@ReleaseAll:

; 272  : 		AEGP_SUITE_RELEASE_BOILERPLATE(effect_suite1P, kAEGPEffectSuite, kAEGPEffectSuiteVersion1);

	mov	rax, QWORD PTR this$[rsp]
	cmp	QWORD PTR [rax+240], 0
	je	SHORT $LN66@ReleaseAll
	mov	r8d, 1
	lea	rdx, OFFSET FLAT:??_C@_0BC@CIPGHMKH@AEGP?5Effect?5Suite?$AA@
	mov	rcx, QWORD PTR this$[rsp]
	call	?ReleaseSuite@AEGP_SuiteHandler@@AEAAXPEADJ@Z ; AEGP_SuiteHandler::ReleaseSuite
$LN66@ReleaseAll:

; 273  : 		AEGP_SUITE_RELEASE_BOILERPLATE(effect_suite2P, kAEGPEffectSuite, kAEGPEffectSuiteVersion2);

	mov	rax, QWORD PTR this$[rsp]
	cmp	QWORD PTR [rax+248], 0
	je	SHORT $LN65@ReleaseAll
	mov	r8d, 2
	lea	rdx, OFFSET FLAT:??_C@_0BC@CIPGHMKH@AEGP?5Effect?5Suite?$AA@
	mov	rcx, QWORD PTR this$[rsp]
	call	?ReleaseSuite@AEGP_SuiteHandler@@AEAAXPEADJ@Z ; AEGP_SuiteHandler::ReleaseSuite
$LN65@ReleaseAll:

; 274  : 		AEGP_SUITE_RELEASE_BOILERPLATE(effect_suite3P, kAEGPEffectSuite, kAEGPEffectSuiteVersion3);

	mov	rax, QWORD PTR this$[rsp]
	cmp	QWORD PTR [rax+256], 0
	je	SHORT $LN64@ReleaseAll
	mov	r8d, 3
	lea	rdx, OFFSET FLAT:??_C@_0BC@CIPGHMKH@AEGP?5Effect?5Suite?$AA@
	mov	rcx, QWORD PTR this$[rsp]
	call	?ReleaseSuite@AEGP_SuiteHandler@@AEAAXPEADJ@Z ; AEGP_SuiteHandler::ReleaseSuite
$LN64@ReleaseAll:

; 275  : 		AEGP_SUITE_RELEASE_BOILERPLATE(mask_suite4P, kAEGPMaskSuite, kAEGPMaskSuiteVersion4);

	mov	rax, QWORD PTR this$[rsp]
	cmp	QWORD PTR [rax+264], 0
	je	SHORT $LN63@ReleaseAll
	mov	r8d, 5
	lea	rdx, OFFSET FLAT:??_C@_0BG@NPODDGJO@AEGP?5Layer?5Mask?5Suite?$AA@
	mov	rcx, QWORD PTR this$[rsp]
	call	?ReleaseSuite@AEGP_SuiteHandler@@AEAAXPEADJ@Z ; AEGP_SuiteHandler::ReleaseSuite
$LN63@ReleaseAll:

; 276  : 		AEGP_SUITE_RELEASE_BOILERPLATE(mask_outline_suite2P, kAEGPMaskOutlineSuite, kAEGPMaskOutlineSuiteVersion2);

	mov	rax, QWORD PTR this$[rsp]
	cmp	QWORD PTR [rax+272], 0
	je	SHORT $LN62@ReleaseAll
	mov	r8d, 3
	lea	rdx, OFFSET FLAT:??_C@_0BI@FEGCMHHE@AEGP?5Mask?5Outline?5Suite?$AA@
	mov	rcx, QWORD PTR this$[rsp]
	call	?ReleaseSuite@AEGP_SuiteHandler@@AEAAXPEADJ@Z ; AEGP_SuiteHandler::ReleaseSuite
$LN62@ReleaseAll:

; 277  : 		AEGP_SUITE_RELEASE_BOILERPLATE(command_suite1P, kAEGPCommandSuite, kAEGPCommandSuiteVersion1);

	mov	rax, QWORD PTR this$[rsp]
	cmp	QWORD PTR [rax+280], 0
	je	SHORT $LN61@ReleaseAll
	mov	r8d, 1
	lea	rdx, OFFSET FLAT:??_C@_0BD@GCCIJPBO@AEGP?5Command?5Suite?$AA@
	mov	rcx, QWORD PTR this$[rsp]
	call	?ReleaseSuite@AEGP_SuiteHandler@@AEAAXPEADJ@Z ; AEGP_SuiteHandler::ReleaseSuite
$LN61@ReleaseAll:

; 278  : 		AEGP_SUITE_RELEASE_BOILERPLATE(utility_suite3P, kAEGPUtilitySuite, kAEGPUtilitySuiteVersion3);

	mov	rax, QWORD PTR this$[rsp]
	cmp	QWORD PTR [rax+288], 0
	je	SHORT $LN60@ReleaseAll
	mov	r8d, 7
	lea	rdx, OFFSET FLAT:??_C@_0BD@KAJJLJOD@AEGP?5Utility?5Suite?$AA@
	mov	rcx, QWORD PTR this$[rsp]
	call	?ReleaseSuite@AEGP_SuiteHandler@@AEAAXPEADJ@Z ; AEGP_SuiteHandler::ReleaseSuite
$LN60@ReleaseAll:

; 279  : 		AEGP_SUITE_RELEASE_BOILERPLATE(render_suite1P, kAEGPRenderSuite, kAEGPRenderSuiteVersion1);

	mov	rax, QWORD PTR this$[rsp]
	cmp	QWORD PTR [rax+296], 0
	je	SHORT $LN59@ReleaseAll
	mov	r8d, 1
	lea	rdx, OFFSET FLAT:??_C@_0BC@HGGIPEKD@AEGP?5Render?5Suite?$AA@
	mov	rcx, QWORD PTR this$[rsp]
	call	?ReleaseSuite@AEGP_SuiteHandler@@AEAAXPEADJ@Z ; AEGP_SuiteHandler::ReleaseSuite
$LN59@ReleaseAll:

; 280  : 		AEGP_SUITE_RELEASE_BOILERPLATE(render_suite2P, kAEGPRenderSuite, kAEGPRenderSuiteVersion2);

	mov	rax, QWORD PTR this$[rsp]
	cmp	QWORD PTR [rax+304], 0
	je	SHORT $LN58@ReleaseAll
	mov	r8d, 2
	lea	rdx, OFFSET FLAT:??_C@_0BC@HGGIPEKD@AEGP?5Render?5Suite?$AA@
	mov	rcx, QWORD PTR this$[rsp]
	call	?ReleaseSuite@AEGP_SuiteHandler@@AEAAXPEADJ@Z ; AEGP_SuiteHandler::ReleaseSuite
$LN58@ReleaseAll:

; 281  : 		AEGP_SUITE_RELEASE_BOILERPLATE(ansi_callbacks_suite1P, kPFANSISuite, kPFANSISuiteVersion1);

	mov	rax, QWORD PTR this$[rsp]
	cmp	QWORD PTR [rax+312], 0
	je	SHORT $LN57@ReleaseAll
	mov	r8d, 1
	lea	rdx, OFFSET FLAT:??_C@_0O@JPGHEGPP@PF?5ANSI?5Suite?$AA@
	mov	rcx, QWORD PTR this$[rsp]
	call	?ReleaseSuite@AEGP_SuiteHandler@@AEAAXPEADJ@Z ; AEGP_SuiteHandler::ReleaseSuite
$LN57@ReleaseAll:

; 282  : 		AEGP_SUITE_RELEASE_BOILERPLATE(handle_suite1P, kPFHandleSuite, kPFHandleSuiteVersion1);

	mov	rax, QWORD PTR this$[rsp]
	cmp	QWORD PTR [rax+320], 0
	je	SHORT $LN56@ReleaseAll
	mov	r8d, 2
	lea	rdx, OFFSET FLAT:??_C@_0BA@CLDKMHPO@PF?5Handle?5Suite?$AA@
	mov	rcx, QWORD PTR this$[rsp]
	call	?ReleaseSuite@AEGP_SuiteHandler@@AEAAXPEADJ@Z ; AEGP_SuiteHandler::ReleaseSuite
$LN56@ReleaseAll:

; 283  : 		AEGP_SUITE_RELEASE_BOILERPLATE(fill_matte_suite2P, kPFFillMatteSuite, kPFFillMatteSuiteVersion2);

	mov	rax, QWORD PTR this$[rsp]
	cmp	QWORD PTR [rax+328], 0
	je	SHORT $LN55@ReleaseAll
	mov	r8d, 2
	lea	rdx, OFFSET FLAT:??_C@_0BE@CIOKPFIG@PF?5Fill?5Matte?5Suite?$AA@
	mov	rcx, QWORD PTR this$[rsp]
	call	?ReleaseSuite@AEGP_SuiteHandler@@AEAAXPEADJ@Z ; AEGP_SuiteHandler::ReleaseSuite
$LN55@ReleaseAll:

; 284  : 		AEGP_SUITE_RELEASE_BOILERPLATE(world_transform_suite1P, kPFWorldTransformSuite, kPFWorldTransformSuiteVersion1);

	mov	rax, QWORD PTR this$[rsp]
	cmp	QWORD PTR [rax+336], 0
	je	SHORT $LN54@ReleaseAll
	mov	r8d, 1
	lea	rdx, OFFSET FLAT:??_C@_0BJ@HEIFEBFB@PF?5World?5Transform?5Suite?$AA@
	mov	rcx, QWORD PTR this$[rsp]
	call	?ReleaseSuite@AEGP_SuiteHandler@@AEAAXPEADJ@Z ; AEGP_SuiteHandler::ReleaseSuite
$LN54@ReleaseAll:

; 285  : 		AEGP_SUITE_RELEASE_BOILERPLATE(query_xform_suite2P, kAEGPQueryXformSuite, kAEGPQueryXformSuiteVersion2);

	mov	rax, QWORD PTR this$[rsp]
	cmp	QWORD PTR [rax+344], 0
	je	SHORT $LN53@ReleaseAll
	mov	r8d, 4
	lea	rdx, OFFSET FLAT:??_C@_0BG@EFBNLDKC@AEGP?5QueryXform?5Suite?$AA@
	mov	rcx, QWORD PTR this$[rsp]
	call	?ReleaseSuite@AEGP_SuiteHandler@@AEAAXPEADJ@Z ; AEGP_SuiteHandler::ReleaseSuite
$LN53@ReleaseAll:

; 286  : 		AEGP_SUITE_RELEASE_BOILERPLATE(composite_suite2P, kAEGPCompositeSuite, kAEGPCompositeSuiteVersion2);

	mov	rax, QWORD PTR this$[rsp]
	cmp	QWORD PTR [rax+352], 0
	je	SHORT $LN52@ReleaseAll
	mov	r8d, 4
	lea	rdx, OFFSET FLAT:??_C@_0BF@LKKDKFNJ@AEGP?5Composite?5Suite?$AA@
	mov	rcx, QWORD PTR this$[rsp]
	call	?ReleaseSuite@AEGP_SuiteHandler@@AEAAXPEADJ@Z ; AEGP_SuiteHandler::ReleaseSuite
$LN52@ReleaseAll:

; 287  : 		AEGP_SUITE_RELEASE_BOILERPLATE(world_suite1P, kPFWorldSuite, kPFWorldSuiteVersion1);

	mov	rax, QWORD PTR this$[rsp]
	cmp	QWORD PTR [rax+360], 0
	je	SHORT $LN51@ReleaseAll
	mov	r8d, 1
	lea	rdx, OFFSET FLAT:??_C@_0P@ECPMHMCM@PF?5World?5Suite?$AA@
	mov	rcx, QWORD PTR this$[rsp]
	call	?ReleaseSuite@AEGP_SuiteHandler@@AEAAXPEADJ@Z ; AEGP_SuiteHandler::ReleaseSuite
$LN51@ReleaseAll:

; 288  : 		AEGP_SUITE_RELEASE_BOILERPLATE(io_in_suite4P, kAEGPIOInSuite, kAEGPIOInSuiteVersion4);

	mov	rax, QWORD PTR this$[rsp]
	cmp	QWORD PTR [rax+416], 0
	je	SHORT $LN50@ReleaseAll
	mov	r8d, 5
	lea	rdx, OFFSET FLAT:??_C@_0BB@BEOGNAMG@AEGP?5IO?5In?5Suite?$AA@
	mov	rcx, QWORD PTR this$[rsp]
	call	?ReleaseSuite@AEGP_SuiteHandler@@AEAAXPEADJ@Z ; AEGP_SuiteHandler::ReleaseSuite
$LN50@ReleaseAll:

; 289  : 		AEGP_SUITE_RELEASE_BOILERPLATE(io_out_suite4P, kAEGPIOOutSuite, kAEGPIOOutSuiteVersion4);

	mov	rax, QWORD PTR this$[rsp]
	cmp	QWORD PTR [rax+424], 0
	je	SHORT $LN49@ReleaseAll
	mov	r8d, 7
	lea	rdx, OFFSET FLAT:??_C@_0BC@IOIMFPHL@AEGP?5IO?5Out?5Suite?$AA@
	mov	rcx, QWORD PTR this$[rsp]
	call	?ReleaseSuite@AEGP_SuiteHandler@@AEAAXPEADJ@Z ; AEGP_SuiteHandler::ReleaseSuite
$LN49@ReleaseAll:

; 290  : 		AEGP_SUITE_RELEASE_BOILERPLATE(render_queue_suite1P, kAEGPRenderQueueSuite, kAEGPRenderQueueSuiteVersion1);

	mov	rax, QWORD PTR this$[rsp]
	cmp	QWORD PTR [rax+440], 0
	je	SHORT $LN48@ReleaseAll
	mov	r8d, 1
	lea	rdx, OFFSET FLAT:??_C@_0BI@BEGHPPBM@AEGP?5Render?5Queue?5Suite?$AA@
	mov	rcx, QWORD PTR this$[rsp]
	call	?ReleaseSuite@AEGP_SuiteHandler@@AEAAXPEADJ@Z ; AEGP_SuiteHandler::ReleaseSuite
$LN48@ReleaseAll:

; 291  : 		AEGP_SUITE_RELEASE_BOILERPLATE(rq_item_suite2P, kAEGPRQItemSuite, kAEGPRQItemSuiteVersion2);

	mov	rax, QWORD PTR this$[rsp]
	cmp	QWORD PTR [rax+448], 0
	je	SHORT $LN47@ReleaseAll
	mov	r8d, 3
	lea	rdx, OFFSET FLAT:??_C@_0BN@JODPPADI@AEGP?5Render?5Queue?5Item?5Suite?$AA@
	mov	rcx, QWORD PTR this$[rsp]
	call	?ReleaseSuite@AEGP_SuiteHandler@@AEAAXPEADJ@Z ; AEGP_SuiteHandler::ReleaseSuite
$LN47@ReleaseAll:

; 292  : 		AEGP_SUITE_RELEASE_BOILERPLATE(output_module_suite4P, kAEGPOutputModuleSuite, kAEGPOutputModuleSuiteVersion4);

	mov	rax, QWORD PTR this$[rsp]
	cmp	QWORD PTR [rax+456], 0
	je	SHORT $LN46@ReleaseAll
	mov	r8d, 4
	lea	rdx, OFFSET FLAT:??_C@_0BJ@HNIFACM@AEGP?5Output?5Module?5Suite?$AA@
	mov	rcx, QWORD PTR this$[rsp]
	call	?ReleaseSuite@AEGP_SuiteHandler@@AEAAXPEADJ@Z ; AEGP_SuiteHandler::ReleaseSuite
$LN46@ReleaseAll:

; 293  : 		AEGP_SUITE_RELEASE_BOILERPLATE(fim_suite3P, kAEGPFIMSuite, kAEGPFIMSuiteVersion3);

	mov	rax, QWORD PTR this$[rsp]
	cmp	QWORD PTR [rax+464], 0
	je	SHORT $LN45@ReleaseAll
	mov	r8d, 3
	lea	rdx, OFFSET FLAT:??_C@_0BP@EILMHMHP@AEGP?5File?5Import?5Manager?5Suite?$AA@
	mov	rcx, QWORD PTR this$[rsp]
	call	?ReleaseSuite@AEGP_SuiteHandler@@AEAAXPEADJ@Z ; AEGP_SuiteHandler::ReleaseSuite
$LN45@ReleaseAll:

; 294  : 		AEGP_SUITE_RELEASE_BOILERPLATE(sampling_8_suite1P, kPFSampling8Suite, kPFSampling8SuiteVersion1);

	mov	rax, QWORD PTR this$[rsp]
	cmp	QWORD PTR [rax+472], 0
	je	SHORT $LN44@ReleaseAll
	mov	r8d, 1
	lea	rdx, OFFSET FLAT:??_C@_0BD@KEGEKMAJ@PF?5Sampling8?5Suite?$AA@
	mov	rcx, QWORD PTR this$[rsp]
	call	?ReleaseSuite@AEGP_SuiteHandler@@AEAAXPEADJ@Z ; AEGP_SuiteHandler::ReleaseSuite
$LN44@ReleaseAll:

; 295  : 		AEGP_SUITE_RELEASE_BOILERPLATE(sampling_16_suite1P, kPFSampling16Suite, kPFSampling16SuiteVersion1);

	mov	rax, QWORD PTR this$[rsp]
	cmp	QWORD PTR [rax+480], 0
	je	SHORT $LN43@ReleaseAll
	mov	r8d, 1
	lea	rdx, OFFSET FLAT:??_C@_0BE@GBHHNNAG@PF?5Sampling16?5Suite?$AA@
	mov	rcx, QWORD PTR this$[rsp]
	call	?ReleaseSuite@AEGP_SuiteHandler@@AEAAXPEADJ@Z ; AEGP_SuiteHandler::ReleaseSuite
$LN43@ReleaseAll:

; 296  : 		AEGP_SUITE_RELEASE_BOILERPLATE(iterate_8_suite1P, kPFIterate8Suite, kPFIterate8SuiteVersion1);

	mov	rax, QWORD PTR this$[rsp]
	cmp	QWORD PTR [rax+488], 0
	je	SHORT $LN42@ReleaseAll
	mov	r8d, 1
	lea	rdx, OFFSET FLAT:??_C@_0BC@CCINLIIF@PF?5Iterate8?5Suite?$AA@
	mov	rcx, QWORD PTR this$[rsp]
	call	?ReleaseSuite@AEGP_SuiteHandler@@AEAAXPEADJ@Z ; AEGP_SuiteHandler::ReleaseSuite
$LN42@ReleaseAll:

; 297  : 		AEGP_SUITE_RELEASE_BOILERPLATE(iterate_16_suite1P, kPFIterate16Suite, kPFIterate16SuiteVersion1);

	mov	rax, QWORD PTR this$[rsp]
	cmp	QWORD PTR [rax+496], 0
	je	SHORT $LN41@ReleaseAll
	mov	r8d, 1
	lea	rdx, OFFSET FLAT:??_C@_0BD@JCMAIAGE@PF?5iterate16?5Suite?$AA@
	mov	rcx, QWORD PTR this$[rsp]
	call	?ReleaseSuite@AEGP_SuiteHandler@@AEAAXPEADJ@Z ; AEGP_SuiteHandler::ReleaseSuite
$LN41@ReleaseAll:

; 298  : 		AEGP_SUITE_RELEASE_BOILERPLATE(iterate_float_suite1P, kPFIterateFloatSuite, kPFIterateFloatSuiteVersion1);

	mov	rax, QWORD PTR this$[rsp]
	cmp	QWORD PTR [rax+504], 0
	je	SHORT $LN40@ReleaseAll
	mov	r8d, 1
	lea	rdx, OFFSET FLAT:??_C@_0BG@CAKABFOI@PF?5iterateFloat?5Suite?$AA@
	mov	rcx, QWORD PTR this$[rsp]
	call	?ReleaseSuite@AEGP_SuiteHandler@@AEAAXPEADJ@Z ; AEGP_SuiteHandler::ReleaseSuite
$LN40@ReleaseAll:

; 299  : 		AEGP_SUITE_RELEASE_BOILERPLATE(collection_suite2P, kAEGPCollectionSuite, kAEGPCollectionSuiteVersion2);

	mov	rax, QWORD PTR this$[rsp]
	cmp	QWORD PTR [rax+512], 0
	je	SHORT $LN39@ReleaseAll
	mov	r8d, 2
	lea	rdx, OFFSET FLAT:??_C@_0BG@CMDNGCIK@AEGP?5Collection?5Suite?$AA@
	mov	rcx, QWORD PTR this$[rsp]
	call	?ReleaseSuite@AEGP_SuiteHandler@@AEAAXPEADJ@Z ; AEGP_SuiteHandler::ReleaseSuite
$LN39@ReleaseAll:

; 300  : 		AEGP_SUITE_RELEASE_BOILERPLATE(text_document_suite1P, kAEGPTextDocumentSuite, kAEGPTextDocumentSuiteVersion1);

	mov	rax, QWORD PTR this$[rsp]
	cmp	QWORD PTR [rax+520], 0
	je	SHORT $LN38@ReleaseAll
	mov	r8d, 1
	lea	rdx, OFFSET FLAT:??_C@_0BJ@KNOGBGJM@AEGP?5Text?5Document?5Suite?$AA@
	mov	rcx, QWORD PTR this$[rsp]
	call	?ReleaseSuite@AEGP_SuiteHandler@@AEAAXPEADJ@Z ; AEGP_SuiteHandler::ReleaseSuite
$LN38@ReleaseAll:

; 301  : 		AEGP_SUITE_RELEASE_BOILERPLATE(sound_data_suite1P, kAEGPSoundDataSuite, kAEGPSoundDataVersion1);

	mov	rax, QWORD PTR this$[rsp]
	cmp	QWORD PTR [rax+528], 0
	je	SHORT $LN37@ReleaseAll
	mov	r8d, 1
	lea	rdx, OFFSET FLAT:??_C@_0BG@LOHBMOBH@AEGP?5Sound?5Data?5Suite?$AA@
	mov	rcx, QWORD PTR this$[rsp]
	call	?ReleaseSuite@AEGP_SuiteHandler@@AEAAXPEADJ@Z ; AEGP_SuiteHandler::ReleaseSuite
$LN37@ReleaseAll:

; 302  : 		AEGP_SUITE_RELEASE_BOILERPLATE(text_layer_suite1P, kAEGPTextLayerSuite, kAEGPTextLayerSuiteVersion1);

	mov	rax, QWORD PTR this$[rsp]
	cmp	QWORD PTR [rax+544], 0
	je	SHORT $LN36@ReleaseAll
	mov	r8d, 1
	lea	rdx, OFFSET FLAT:??_C@_0BG@PIIKMEEM@AEGP?5Text?5Layer?5Suite?$AA@
	mov	rcx, QWORD PTR this$[rsp]
	call	?ReleaseSuite@AEGP_SuiteHandler@@AEAAXPEADJ@Z ; AEGP_SuiteHandler::ReleaseSuite
$LN36@ReleaseAll:

; 303  : 		AEGP_SUITE_RELEASE_BOILERPLATE(artisan_util_suite1P, kAEGPArtisanUtilSuite, kAEGPArtisanUtilSuiteVersion1);

	mov	rax, QWORD PTR this$[rsp]
	cmp	QWORD PTR [rax+552], 0
	je	SHORT $LN35@ReleaseAll
	mov	r8d, 1
	lea	rdx, OFFSET FLAT:??_C@_0BI@NIENNNHL@AEGP?5Artisan?5Util?5Suite?$AA@
	mov	rcx, QWORD PTR this$[rsp]
	call	?ReleaseSuite@AEGP_SuiteHandler@@AEAAXPEADJ@Z ; AEGP_SuiteHandler::ReleaseSuite
$LN35@ReleaseAll:

; 304  : 		AEGP_SUITE_RELEASE_BOILERPLATE(aegp_world_suite_2P, kAEGPWorldSuite, kAEGPWorldSuiteVersion2);

	mov	rax, QWORD PTR this$[rsp]
	cmp	QWORD PTR [rax+560], 0
	je	SHORT $LN34@ReleaseAll
	mov	r8d, 2
	lea	rdx, OFFSET FLAT:??_C@_0BB@JDBEOMKC@AEGP?5World?5Suite?$AA@
	mov	rcx, QWORD PTR this$[rsp]
	call	?ReleaseSuite@AEGP_SuiteHandler@@AEAAXPEADJ@Z ; AEGP_SuiteHandler::ReleaseSuite
$LN34@ReleaseAll:

; 305  : 		AEGP_SUITE_RELEASE_BOILERPLATE(aegp_world_suite_3P, kAEGPWorldSuite, kAEGPWorldSuiteVersion3);

	mov	rax, QWORD PTR this$[rsp]
	cmp	QWORD PTR [rax+568], 0
	je	SHORT $LN33@ReleaseAll
	mov	r8d, 3
	lea	rdx, OFFSET FLAT:??_C@_0BB@JDBEOMKC@AEGP?5World?5Suite?$AA@
	mov	rcx, QWORD PTR this$[rsp]
	call	?ReleaseSuite@AEGP_SuiteHandler@@AEAAXPEADJ@Z ; AEGP_SuiteHandler::ReleaseSuite
$LN33@ReleaseAll:

; 306  : 		AEGP_SUITE_RELEASE_BOILERPLATE(render_options_suite_1P, kAEGPRenderOptionsSuite, kAEGPRenderOptionsSuiteVersion1);

	mov	rax, QWORD PTR this$[rsp]
	cmp	QWORD PTR [rax+576], 0
	je	SHORT $LN32@ReleaseAll
	mov	r8d, 1
	lea	rdx, OFFSET FLAT:??_C@_0BK@FIOOIKGA@AEGP?5Render?5Options?5Suite?$AA@
	mov	rcx, QWORD PTR this$[rsp]
	call	?ReleaseSuite@AEGP_SuiteHandler@@AEAAXPEADJ@Z ; AEGP_SuiteHandler::ReleaseSuite
$LN32@ReleaseAll:

; 307  : 		AEGP_SUITE_RELEASE_BOILERPLATE(tracker_suite_1P, kAEGPTrackerSuite, kAEGPTrackerSuiteVersion1);

	mov	rax, QWORD PTR this$[rsp]
	cmp	QWORD PTR [rax+584], 0
	je	SHORT $LN31@ReleaseAll
	mov	r8d, 1
	lea	rdx, OFFSET FLAT:??_C@_0BD@OKKDJPCJ@AEGP?5Tracker?5Suite?$AA@
	mov	rcx, QWORD PTR this$[rsp]
	call	?ReleaseSuite@AEGP_SuiteHandler@@AEAAXPEADJ@Z ; AEGP_SuiteHandler::ReleaseSuite
$LN31@ReleaseAll:

; 308  : 		AEGP_SUITE_RELEASE_BOILERPLATE(tracker_utility_suite_1P, kAEGPTrackerUtilitySuite, kAEGPTrackerUtilitySuiteVersion1);

	mov	rax, QWORD PTR this$[rsp]
	cmp	QWORD PTR [rax+592], 0
	je	SHORT $LN30@ReleaseAll
	mov	r8d, 1
	lea	rdx, OFFSET FLAT:??_C@_0BL@EOJBEHFK@AEGP?5Tracker?5Utility?5Suite?$AA@
	mov	rcx, QWORD PTR this$[rsp]
	call	?ReleaseSuite@AEGP_SuiteHandler@@AEAAXPEADJ@Z ; AEGP_SuiteHandler::ReleaseSuite
$LN30@ReleaseAll:

; 309  : 		AEGP_SUITE_RELEASE_BOILERPLATE(helper_suite_2P, kPFHelperSuite2, kPFHelperSuite2Version2);

	mov	rax, QWORD PTR this$[rsp]
	cmp	QWORD PTR [rax+600], 0
	je	SHORT $LN29@ReleaseAll
	mov	r8d, 2
	lea	rdx, OFFSET FLAT:??_C@_0BI@FFBECFBP@AE?5Plugin?5Helper?5Suite2?$AA@
	mov	rcx, QWORD PTR this$[rsp]
	call	?ReleaseSuite@AEGP_SuiteHandler@@AEAAXPEADJ@Z ; AEGP_SuiteHandler::ReleaseSuite
$LN29@ReleaseAll:

; 310  : 		AEGP_SUITE_RELEASE_BOILERPLATE(layer_suite_5P, kAEGPLayerSuite, kAEGPLayerSuiteVersion5);

	mov	rax, QWORD PTR this$[rsp]
	cmp	QWORD PTR [rax+608], 0
	je	SHORT $LN28@ReleaseAll
	mov	r8d, 11
	lea	rdx, OFFSET FLAT:??_C@_0BB@FCHPPLFG@AEGP?5Layer?5Suite?$AA@
	mov	rcx, QWORD PTR this$[rsp]
	call	?ReleaseSuite@AEGP_SuiteHandler@@AEAAXPEADJ@Z ; AEGP_SuiteHandler::ReleaseSuite
$LN28@ReleaseAll:

; 311  : 		AEGP_SUITE_RELEASE_BOILERPLATE(layer_suite_6P, kAEGPLayerSuite, kAEGPLayerSuiteVersion6);

	mov	rax, QWORD PTR this$[rsp]
	cmp	QWORD PTR [rax+616], 0
	je	SHORT $LN27@ReleaseAll
	mov	r8d, 12
	lea	rdx, OFFSET FLAT:??_C@_0BB@FCHPPLFG@AEGP?5Layer?5Suite?$AA@
	mov	rcx, QWORD PTR this$[rsp]
	call	?ReleaseSuite@AEGP_SuiteHandler@@AEAAXPEADJ@Z ; AEGP_SuiteHandler::ReleaseSuite
$LN27@ReleaseAll:

; 312  : 		AEGP_SUITE_RELEASE_BOILERPLATE(layer_suite_7P, kAEGPLayerSuite, kAEGPLayerSuiteVersion7);

	mov	rax, QWORD PTR this$[rsp]
	cmp	QWORD PTR [rax+624], 0
	je	SHORT $LN26@ReleaseAll
	mov	r8d, 13
	lea	rdx, OFFSET FLAT:??_C@_0BB@FCHPPLFG@AEGP?5Layer?5Suite?$AA@
	mov	rcx, QWORD PTR this$[rsp]
	call	?ReleaseSuite@AEGP_SuiteHandler@@AEAAXPEADJ@Z ; AEGP_SuiteHandler::ReleaseSuite
$LN26@ReleaseAll:

; 313  : 		AEGP_SUITE_RELEASE_BOILERPLATE(adv_item_suite_1P, kPFAdvItemSuite, kPFAdvItemSuiteVersion1);

	mov	rax, QWORD PTR this$[rsp]
	cmp	QWORD PTR [rax+768], 0
	je	SHORT $LN25@ReleaseAll
	mov	r8d, 1
	lea	rdx, OFFSET FLAT:??_C@_0BF@OPIMHKKI@PF?5AE?5Adv?5Item?5Suite?$AA@
	mov	rcx, QWORD PTR this$[rsp]
	call	?ReleaseSuite@AEGP_SuiteHandler@@AEAAXPEADJ@Z ; AEGP_SuiteHandler::ReleaseSuite
$LN25@ReleaseAll:

; 314  : #ifdef	I_NEED_ADM_SUPPORT
; 315  : 		AEGP_SUITE_RELEASE_BOILERPLATE(adm_basic_suite_8P, kADMBasicSuite, kADMBasicSuiteVersion8);
; 316  : 		AEGP_SUITE_RELEASE_BOILERPLATE(adm_dialog_suite_8P, kADMDialogSuite, kADMDialogSuiteVersion8);
; 317  : 		AEGP_SUITE_RELEASE_BOILERPLATE(adm_dialog_group_suite_3P, kADMDialogGroupSuite, kADMDialogGroupSuiteVersion3);
; 318  : 		AEGP_SUITE_RELEASE_BOILERPLATE(adm_item_suite_8P, kADMItemSuite, kADMItemSuiteVersion8);
; 319  : 		AEGP_SUITE_RELEASE_BOILERPLATE(adm_list_suite_3P, kADMListSuite, kADMListSuiteVersion3);
; 320  : 		AEGP_SUITE_RELEASE_BOILERPLATE(adm_entry_suite_5P, kADMEntrySuite, kADMEntrySuiteVersion5);
; 321  : 		AEGP_SUITE_RELEASE_BOILERPLATE(adm_notifier_suite_2P, kADMNotifierSuite, kADMNotifierSuiteVersion2);
; 322  : #endif
; 323  : 		AEGP_SUITE_RELEASE_BOILERPLATE(layer_suite_1P, kAEGPLayerSuite, kAEGPLayerSuiteVersion1);

	mov	rax, QWORD PTR this$[rsp]
	cmp	QWORD PTR [rax+632], 0
	je	SHORT $LN24@ReleaseAll
	mov	r8d, 5
	lea	rdx, OFFSET FLAT:??_C@_0BB@FCHPPLFG@AEGP?5Layer?5Suite?$AA@
	mov	rcx, QWORD PTR this$[rsp]
	call	?ReleaseSuite@AEGP_SuiteHandler@@AEAAXPEADJ@Z ; AEGP_SuiteHandler::ReleaseSuite
$LN24@ReleaseAll:

; 324  : 		AEGP_SUITE_RELEASE_BOILERPLATE(mask_suite_1P, kAEGPMaskSuite, kAEGPMaskSuiteVersion1);

	mov	rax, QWORD PTR this$[rsp]
	cmp	QWORD PTR [rax+640], 0
	je	SHORT $LN23@ReleaseAll
	mov	r8d, 2
	lea	rdx, OFFSET FLAT:??_C@_0BG@NPODDGJO@AEGP?5Layer?5Mask?5Suite?$AA@
	mov	rcx, QWORD PTR this$[rsp]
	call	?ReleaseSuite@AEGP_SuiteHandler@@AEAAXPEADJ@Z ; AEGP_SuiteHandler::ReleaseSuite
$LN23@ReleaseAll:

; 325  : 		AEGP_SUITE_RELEASE_BOILERPLATE(comp_suite_1P, kAEGPCompSuite, kAEGPCompSuiteVersion1);

	mov	rax, QWORD PTR this$[rsp]
	cmp	QWORD PTR [rax+664], 0
	je	SHORT $LN22@ReleaseAll
	mov	r8d, 4
	lea	rdx, OFFSET FLAT:??_C@_0BA@EIBCLLGC@AEGP?5Comp?5Suite?$AA@
	mov	rcx, QWORD PTR this$[rsp]
	call	?ReleaseSuite@AEGP_SuiteHandler@@AEAAXPEADJ@Z ; AEGP_SuiteHandler::ReleaseSuite
$LN22@ReleaseAll:

; 326  : 		AEGP_SUITE_RELEASE_BOILERPLATE(collection_suite_1P, kAEGPCollectionSuite, kAEGPCollectionSuiteVersion1);

	mov	rax, QWORD PTR this$[rsp]
	cmp	QWORD PTR [rax+672], 0
	je	SHORT $LN21@ReleaseAll
	mov	r8d, 1
	lea	rdx, OFFSET FLAT:??_C@_0BG@CMDNGCIK@AEGP?5Collection?5Suite?$AA@
	mov	rcx, QWORD PTR this$[rsp]
	call	?ReleaseSuite@AEGP_SuiteHandler@@AEAAXPEADJ@Z ; AEGP_SuiteHandler::ReleaseSuite
$LN21@ReleaseAll:

; 327  : 		AEGP_SUITE_RELEASE_BOILERPLATE(mask_outline_suite_1P, kAEGPMaskOutlineSuite, kAEGPMaskOutlineSuiteVersion1);

	mov	rax, QWORD PTR this$[rsp]
	cmp	QWORD PTR [rax+688], 0
	je	SHORT $LN20@ReleaseAll
	mov	r8d, 2
	lea	rdx, OFFSET FLAT:??_C@_0BI@FEGCMHHE@AEGP?5Mask?5Outline?5Suite?$AA@
	mov	rcx, QWORD PTR this$[rsp]
	call	?ReleaseSuite@AEGP_SuiteHandler@@AEAAXPEADJ@Z ; AEGP_SuiteHandler::ReleaseSuite
$LN20@ReleaseAll:

; 328  : 		AEGP_SUITE_RELEASE_BOILERPLATE(adv_app_suite_1P, kPFAdvAppSuite, kPFAdvAppSuiteVersion1);

	mov	rax, QWORD PTR this$[rsp]
	cmp	QWORD PTR [rax+696], 0
	je	SHORT $LN19@ReleaseAll
	mov	r8d, 1
	lea	rdx, OFFSET FLAT:??_C@_0BE@KFNBHDEF@PF?5AE?5Adv?5App?5Suite?$AA@
	mov	rcx, QWORD PTR this$[rsp]
	call	?ReleaseSuite@AEGP_SuiteHandler@@AEAAXPEADJ@Z ; AEGP_SuiteHandler::ReleaseSuite
$LN19@ReleaseAll:

; 329  : 		AEGP_SUITE_RELEASE_BOILERPLATE(utility_suite_1P, kAEGPUtilitySuite, kAEGPUtilitySuiteVersion1);

	mov	rax, QWORD PTR this$[rsp]
	cmp	QWORD PTR [rax+704], 0
	je	SHORT $LN18@ReleaseAll
	mov	r8d, 3
	lea	rdx, OFFSET FLAT:??_C@_0BD@KAJJLJOD@AEGP?5Utility?5Suite?$AA@
	mov	rcx, QWORD PTR this$[rsp]
	call	?ReleaseSuite@AEGP_SuiteHandler@@AEAAXPEADJ@Z ; AEGP_SuiteHandler::ReleaseSuite
$LN18@ReleaseAll:

; 330  : 		AEGP_SUITE_RELEASE_BOILERPLATE(render_options_suite_2P, kAEGPRenderOptionsSuite, kAEGPRenderOptionsSuiteVersion2);

	mov	rax, QWORD PTR this$[rsp]
	cmp	QWORD PTR [rax+712], 0
	je	SHORT $LN17@ReleaseAll
	mov	r8d, 2
	lea	rdx, OFFSET FLAT:??_C@_0BK@FIOOIKGA@AEGP?5Render?5Options?5Suite?$AA@
	mov	rcx, QWORD PTR this$[rsp]
	call	?ReleaseSuite@AEGP_SuiteHandler@@AEAAXPEADJ@Z ; AEGP_SuiteHandler::ReleaseSuite
$LN17@ReleaseAll:

; 331  : 		AEGP_SUITE_RELEASE_BOILERPLATE(proj_suite_5P, kAEGPProjSuite, kAEGPProjSuiteVersion5);

	mov	rax, QWORD PTR this$[rsp]
	cmp	QWORD PTR [rax+720], 0
	je	SHORT $LN16@ReleaseAll
	mov	r8d, 8
	lea	rdx, OFFSET FLAT:??_C@_0BA@GONLBGJF@AEGP?5Proj?5Suite?$AA@
	mov	rcx, QWORD PTR this$[rsp]
	call	?ReleaseSuite@AEGP_SuiteHandler@@AEAAXPEADJ@Z ; AEGP_SuiteHandler::ReleaseSuite
$LN16@ReleaseAll:

; 332  : 		AEGP_SUITE_RELEASE_BOILERPLATE(footage_suite_5P, kAEGPFootageSuite, kAEGPFootageSuiteVersion5);

	mov	rax, QWORD PTR this$[rsp]
	cmp	QWORD PTR [rax+728], 0
	je	SHORT $LN15@ReleaseAll
	mov	r8d, 11
	lea	rdx, OFFSET FLAT:??_C@_0BD@LPACCDGH@AEGP?5Footage?5Suite?$AA@
	mov	rcx, QWORD PTR this$[rsp]
	call	?ReleaseSuite@AEGP_SuiteHandler@@AEAAXPEADJ@Z ; AEGP_SuiteHandler::ReleaseSuite
$LN15@ReleaseAll:

; 333  : 		AEGP_SUITE_RELEASE_BOILERPLATE(rq_item_suite_3P, kAEGPRQItemSuite, kAEGPRQItemSuiteVersion3);

	mov	rax, QWORD PTR this$[rsp]
	cmp	QWORD PTR [rax+736], 0
	je	SHORT $LN14@ReleaseAll
	mov	r8d, 4
	lea	rdx, OFFSET FLAT:??_C@_0BN@JODPPADI@AEGP?5Render?5Queue?5Item?5Suite?$AA@
	mov	rcx, QWORD PTR this$[rsp]
	call	?ReleaseSuite@AEGP_SuiteHandler@@AEAAXPEADJ@Z ; AEGP_SuiteHandler::ReleaseSuite
$LN14@ReleaseAll:

; 334  : 		AEGP_SUITE_RELEASE_BOILERPLATE(utility_suite_4P, kAEGPUtilitySuite, kAEGPUtilitySuiteVersion4);

	mov	rax, QWORD PTR this$[rsp]
	cmp	QWORD PTR [rax+744], 0
	je	SHORT $LN13@ReleaseAll
	mov	r8d, 10
	lea	rdx, OFFSET FLAT:??_C@_0BD@KAJJLJOD@AEGP?5Utility?5Suite?$AA@
	mov	rcx, QWORD PTR this$[rsp]
	call	?ReleaseSuite@AEGP_SuiteHandler@@AEAAXPEADJ@Z ; AEGP_SuiteHandler::ReleaseSuite
$LN13@ReleaseAll:

; 335  : 		AEGP_SUITE_RELEASE_BOILERPLATE(persistent_data_suite3P, kAEGPPersistentDataSuite, kAEGPPersistentDataSuiteVersion3);

	mov	rax, QWORD PTR this$[rsp]
	cmp	QWORD PTR [rax+432], 0
	je	SHORT $LN12@ReleaseAll
	mov	r8d, 3
	lea	rdx, OFFSET FLAT:??_C@_0BL@LKLAICCP@AEGP?5Persistent?5Data?5Suite?$AA@
	mov	rcx, QWORD PTR this$[rsp]
	call	?ReleaseSuite@AEGP_SuiteHandler@@AEAAXPEADJ@Z ; AEGP_SuiteHandler::ReleaseSuite
$LN12@ReleaseAll:

; 336  : 		AEGP_SUITE_RELEASE_BOILERPLATE(color_settings_suite_2P, kAEGPColorSettingsSuite, kAEGPColorSettingsSuiteVersion2);

	mov	rax, QWORD PTR this$[rsp]
	cmp	QWORD PTR [rax+752], 0
	je	SHORT $LN11@ReleaseAll
	mov	r8d, 3
	lea	rdx, OFFSET FLAT:??_C@_0BI@MJAMCLDB@PF?5Color?5Settings?5Suite?$AA@
	mov	rcx, QWORD PTR this$[rsp]
	call	?ReleaseSuite@AEGP_SuiteHandler@@AEAAXPEADJ@Z ; AEGP_SuiteHandler::ReleaseSuite
$LN11@ReleaseAll:

; 337  : 		AEGP_SUITE_RELEASE_BOILERPLATE(color_settings_suite_1P, kAEGPColorSettingsSuite, kAEGPColorSettingsSuiteVersion1);

	mov	rax, QWORD PTR this$[rsp]
	cmp	QWORD PTR [rax+760], 0
	je	SHORT $LN10@ReleaseAll
	mov	r8d, 1
	lea	rdx, OFFSET FLAT:??_C@_0BI@MJAMCLDB@PF?5Color?5Settings?5Suite?$AA@
	mov	rcx, QWORD PTR this$[rsp]
	call	?ReleaseSuite@AEGP_SuiteHandler@@AEAAXPEADJ@Z ; AEGP_SuiteHandler::ReleaseSuite
$LN10@ReleaseAll:

; 338  : 		AEGP_SUITE_RELEASE_BOILERPLATE(color_param_suite_1P, kPFColorParamSuite, kPFColorParamSuiteVersion1);

	mov	rax, QWORD PTR this$[rsp]
	cmp	QWORD PTR [rax+784], 0
	je	SHORT $LN9@ReleaseAll
	mov	r8d, 1
	lea	rdx, OFFSET FLAT:??_C@_0BD@GPKPPDOH@PF?5ColorParamSuite?$AA@
	mov	rcx, QWORD PTR this$[rsp]
	call	?ReleaseSuite@AEGP_SuiteHandler@@AEAAXPEADJ@Z ; AEGP_SuiteHandler::ReleaseSuite
$LN9@ReleaseAll:

; 339  : 		AEGP_SUITE_RELEASE_BOILERPLATE(sampling_float_suite_1P, kPFSamplingFloatSuite, kPFSamplingFloatSuiteVersion1);

	mov	rax, QWORD PTR this$[rsp]
	cmp	QWORD PTR [rax+792], 0
	je	SHORT $LN8@ReleaseAll
	mov	r8d, 1
	lea	rdx, OFFSET FLAT:??_C@_0BH@DBODAPGD@PF?5SamplingFloat?5Suite?$AA@
	mov	rcx, QWORD PTR this$[rsp]
	call	?ReleaseSuite@AEGP_SuiteHandler@@AEAAXPEADJ@Z ; AEGP_SuiteHandler::ReleaseSuite
$LN8@ReleaseAll:

; 340  : 		AEGP_SUITE_RELEASE_BOILERPLATE(utility_suite_5P, kAEGPUtilitySuite, kAEGPUtilitySuiteVersion5);

	mov	rax, QWORD PTR this$[rsp]
	cmp	QWORD PTR [rax+800], 0
	je	SHORT $LN7@ReleaseAll
	mov	r8d, 11
	lea	rdx, OFFSET FLAT:??_C@_0BD@KAJJLJOD@AEGP?5Utility?5Suite?$AA@
	mov	rcx, QWORD PTR this$[rsp]
	call	?ReleaseSuite@AEGP_SuiteHandler@@AEAAXPEADJ@Z ; AEGP_SuiteHandler::ReleaseSuite
$LN7@ReleaseAll:

; 341  : 		AEGP_SUITE_RELEASE_BOILERPLATE(custom_ui_suite1P, kPFEffectCustomUISuite, kPFEffectCustomUISuiteVersion1);

	mov	rax, QWORD PTR this$[rsp]
	cmp	QWORD PTR [rax+808], 0
	je	SHORT $LN6@ReleaseAll
	mov	r8d, 1
	lea	rdx, OFFSET FLAT:??_C@_0BK@CMHGHGNL@PF?5Effect?5Custom?5UI?5Suite?$AA@
	mov	rcx, QWORD PTR this$[rsp]
	call	?ReleaseSuite@AEGP_SuiteHandler@@AEAAXPEADJ@Z ; AEGP_SuiteHandler::ReleaseSuite
$LN6@ReleaseAll:

; 342  : 		AEGP_SUITE_RELEASE_BOILERPLATE(custom_ui_theme_suite1P, kPFEffectCustomUIOverlayThemeSuite, kPFEffectCustomUIOverlayThemeSuiteVersion1);

	mov	rax, QWORD PTR this$[rsp]
	cmp	QWORD PTR [rax+816], 0
	je	SHORT $LN5@ReleaseAll
	mov	r8d, 1
	lea	rdx, OFFSET FLAT:??_C@_0CI@OCHIBGAE@PF?5Effect?5Custom?5UI?5Overlay?5Them@
	mov	rcx, QWORD PTR this$[rsp]
	call	?ReleaseSuite@AEGP_SuiteHandler@@AEAAXPEADJ@Z ; AEGP_SuiteHandler::ReleaseSuite
$LN5@ReleaseAll:

; 343  : 		AEGP_SUITE_RELEASE_BOILERPLATE(drawing_suite_currentP, kDRAWBOT_DrawSuite, kDRAWBOT_DrawSuite_VersionCurrent);

	mov	rax, QWORD PTR this$[rsp]
	cmp	QWORD PTR [rax+824], 0
	je	SHORT $LN4@ReleaseAll
	mov	r8d, 1
	lea	rdx, OFFSET FLAT:??_C@_0BD@FLBGPIMI@DRAWBOT?5Draw?5Suite?$AA@
	mov	rcx, QWORD PTR this$[rsp]
	call	?ReleaseSuite@AEGP_SuiteHandler@@AEAAXPEADJ@Z ; AEGP_SuiteHandler::ReleaseSuite
$LN4@ReleaseAll:

; 344  : 		AEGP_SUITE_RELEASE_BOILERPLATE(drawbot_supplier_suite_currentP, kDRAWBOT_SupplierSuite, kDRAWBOT_SupplierSuite_VersionCurrent);

	mov	rax, QWORD PTR this$[rsp]
	cmp	QWORD PTR [rax+832], 0
	je	SHORT $LN3@ReleaseAll
	mov	r8d, 1
	lea	rdx, OFFSET FLAT:??_C@_0BH@FIONCCPG@DRAWBOT?5Supplier?5Suite?$AA@
	mov	rcx, QWORD PTR this$[rsp]
	call	?ReleaseSuite@AEGP_SuiteHandler@@AEAAXPEADJ@Z ; AEGP_SuiteHandler::ReleaseSuite
$LN3@ReleaseAll:

; 345  : 		AEGP_SUITE_RELEASE_BOILERPLATE(drawbot_surface_suite_currentP, kDRAWBOT_SurfaceSuite, kDRAWBOT_SurfaceSuite_VersionCurrent);

	mov	rax, QWORD PTR this$[rsp]
	cmp	QWORD PTR [rax+840], 0
	je	SHORT $LN2@ReleaseAll
	mov	r8d, 1
	lea	rdx, OFFSET FLAT:??_C@_0BG@FIILEFJC@DRAWBOT?5Surface?5Suite?$AA@
	mov	rcx, QWORD PTR this$[rsp]
	call	?ReleaseSuite@AEGP_SuiteHandler@@AEAAXPEADJ@Z ; AEGP_SuiteHandler::ReleaseSuite
$LN2@ReleaseAll:

; 346  : 		AEGP_SUITE_RELEASE_BOILERPLATE(drawbot_path_suite_currentP, kDRAWBOT_PathSuite, kDRAWBOT_PathSuite_VersionCurrent);

	mov	rax, QWORD PTR this$[rsp]
	cmp	QWORD PTR [rax+848], 0
	je	SHORT $LN1@ReleaseAll
	mov	r8d, 1
	lea	rdx, OFFSET FLAT:??_C@_0BD@MKGMFBND@DRAWBOT?5Path?5Suite?$AA@
	mov	rcx, QWORD PTR this$[rsp]
	call	?ReleaseSuite@AEGP_SuiteHandler@@AEAAXPEADJ@Z ; AEGP_SuiteHandler::ReleaseSuite
$LN1@ReleaseAll:

; 347  : 
; 348  : 	}

	add	rsp, 40					; 00000028H
	ret	0
?ReleaseAllSuites@AEGP_SuiteHandler@@AEAAXXZ ENDP	; AEGP_SuiteHandler::ReleaseAllSuites
_TEXT	ENDS
; Function compile flags: /Odtp
; File c:\users\syuilo\documents\visual studio 2013\projects\after_effects_cs5_sdk_win\adobe after effects cs5 win sdk\examples\util\aegp_suitehandler.cpp
_TEXT	SEGMENT
this$ = 48
nameZ$ = 56
versionL$ = 64
?ReleaseSuite@AEGP_SuiteHandler@@AEAAXPEADJ@Z PROC	; AEGP_SuiteHandler::ReleaseSuite

; 63   : {

$LN3:
	mov	DWORD PTR [rsp+24], r8d
	mov	QWORD PTR [rsp+16], rdx
	mov	QWORD PTR [rsp+8], rcx
	sub	rsp, 40					; 00000028H

; 64   : 	i_pica_basicP->ReleaseSuite(nameZ, versionL);

	mov	rax, QWORD PTR this$[rsp]
	mov	rax, QWORD PTR [rax]
	mov	edx, DWORD PTR versionL$[rsp]
	mov	rcx, QWORD PTR nameZ$[rsp]
	call	QWORD PTR [rax+8]

; 65   : }

	add	rsp, 40					; 00000028H
	ret	0
?ReleaseSuite@AEGP_SuiteHandler@@AEAAXPEADJ@Z ENDP	; AEGP_SuiteHandler::ReleaseSuite
_TEXT	ENDS
END
